libtelegramqml.so.1:_Z19checkDialogLessThanxx
libtelegramqml.so.1:_Z20checkMessageLessThanxx
libtelegramqml.so.1:_Z27qInitResources_tqmlresourcev
libtelegramqml.so.1:_Z30qCleanupResources_tqmlresourcev
libtelegramqml.so.1:_ZN10ChatObject10geoChangedEv
libtelegramqml.so.1:_ZN10ChatObject11dateChangedEv
libtelegramqml.so.1:_ZN10ChatObject11leftChangedEv
libtelegramqml.so.1:_ZN10ChatObject11qt_metacallEN11QMetaObject4CallEiPPv
libtelegramqml.so.1:_ZN10ChatObject11qt_metacastEPKc
libtelegramqml.so.1:_ZN10ChatObject12photoChangedEv
libtelegramqml.so.1:_ZN10ChatObject12titleChangedEv
libtelegramqml.so.1:_ZN10ChatObject12venueChangedEv
libtelegramqml.so.1:_ZN10ChatObject14addressChangedEv
libtelegramqml.so.1:_ZN10ChatObject14versionChangedEv
libtelegramqml.so.1:_ZN10ChatObject16checkedInChangedEv
libtelegramqml.so.1:_ZN10ChatObject16classTypeChangedEv
libtelegramqml.so.1:_ZN10ChatObject17accessHashChangedEv
libtelegramqml.so.1:_ZN10ChatObject24participantsCountChangedEv
libtelegramqml.so.1:_ZN10ChatObject7changedEv
libtelegramqml.so.1:_ZN10ChatObject9idChangedEv
libtelegramqml.so.1:_ZN10PeerObject11qt_metacallEN11QMetaObject4CallEiPPv
libtelegramqml.so.1:_ZN10PeerObject11qt_metacastEPKc
libtelegramqml.so.1:_ZN10PeerObject13chatIdChangedEv
libtelegramqml.so.1:_ZN10PeerObject13userIdChangedEv
libtelegramqml.so.1:_ZN10PeerObject16classTypeChangedEv
libtelegramqml.so.1:_ZN10PeerObject7changedEv
libtelegramqml.so.1:_ZN10UserObject11qt_metacallEN11QMetaObject4CallEiPPv
libtelegramqml.so.1:_ZN10UserObject11qt_metacastEPKc
libtelegramqml.so.1:_ZN10UserObject12phoneChangedEv
libtelegramqml.so.1:_ZN10UserObject12photoChangedEv
libtelegramqml.so.1:_ZN10UserObject13statusChangedEv
libtelegramqml.so.1:_ZN10UserObject15inactiveChangedEv
libtelegramqml.so.1:_ZN10UserObject15lastNameChangedEv
libtelegramqml.so.1:_ZN10UserObject15usernameChangedEv
libtelegramqml.so.1:_ZN10UserObject16classTypeChangedEv
libtelegramqml.so.1:_ZN10UserObject16firstNameChangedEv
libtelegramqml.so.1:_ZN10UserObject17accessHashChangedEv
libtelegramqml.so.1:_ZN10UserObject7changedEv
libtelegramqml.so.1:_ZN10UserObject9idChangedEv
libtelegramqml.so.1:_ZN11AudioObject11dateChangedEv
libtelegramqml.so.1:_ZN11AudioObject11dcIdChangedEv
libtelegramqml.so.1:_ZN11AudioObject11qt_metacallEN11QMetaObject4CallEiPPv
libtelegramqml.so.1:_ZN11AudioObject11qt_metacastEPKc
libtelegramqml.so.1:_ZN11AudioObject11sizeChangedEv
libtelegramqml.so.1:_ZN11AudioObject13userIdChangedEv
libtelegramqml.so.1:_ZN11AudioObject15durationChangedEv
libtelegramqml.so.1:_ZN11AudioObject15mimeTypeChangedEv
libtelegramqml.so.1:_ZN11AudioObject16classTypeChangedEv
libtelegramqml.so.1:_ZN11AudioObject17accessHashChangedEv
libtelegramqml.so.1:_ZN11AudioObject7changedEv
libtelegramqml.so.1:_ZN11AudioObject9idChangedEv
libtelegramqml.so.1:_ZN11PhotoObject10geoChangedEv
libtelegramqml.so.1:_ZN11PhotoObject11dateChangedEv
libtelegramqml.so.1:_ZN11PhotoObject11qt_metacallEN11QMetaObject4CallEiPPv
libtelegramqml.so.1:_ZN11PhotoObject11qt_metacastEPKc
libtelegramqml.so.1:_ZN11PhotoObject12sizesChangedEv
libtelegramqml.so.1:_ZN11PhotoObject13userIdChangedEv
libtelegramqml.so.1:_ZN11PhotoObject16classTypeChangedEv
libtelegramqml.so.1:_ZN11PhotoObject17accessHashChangedEv
libtelegramqml.so.1:_ZN11PhotoObject7changedEv
libtelegramqml.so.1:_ZN11PhotoObject9idChangedEv
libtelegramqml.so.1:_ZN11TelegramQml10addContactERK7QStringS2_S2_
libtelegramqml.so.1:_ZN11TelegramQml10authLogoutEv
libtelegramqml.so.1:_ZN11TelegramQml10authSignInERK7QStringb
libtelegramqml.so.1:_ZN11TelegramQml10authSignUpERK7QStringS2_S2_
libtelegramqml.so.1:_ZN11TelegramQml10fakeSignalEv
libtelegramqml.so.1:_ZN11TelegramQml10insertChatERK4Chatb
libtelegramqml.so.1:_ZN11TelegramQml10insertUserERK4Userb
libtelegramqml.so.1:_ZN11TelegramQml10locationOfExxxP7QObject
libtelegramqml.so.1:_ZN11TelegramQml10newMessageEx
libtelegramqml.so.1:_ZN11TelegramQml10searchDoneERK5QListIxE
libtelegramqml.so.1:_ZN11TelegramQml10setAppHashERK7QString
libtelegramqml.so.1:_ZN11TelegramQml10timerEventEP11QTimerEvent
libtelegramqml.so.1:_ZN11TelegramQml11addContactsERK5QListI8QVariantE
libtelegramqml.so.1:_ZN11TelegramQml11errorSignalExi7QStringS0_
libtelegramqml.so.1:_ZN11TelegramQml11getPeerTypeEx
libtelegramqml.so.1:_ZN11TelegramQml11messageSentEiP13MessageObject
libtelegramqml.so.1:_ZN11TelegramQml11qt_metacallEN11QMetaObject4CallEiPPv
libtelegramqml.so.1:_ZN11TelegramQml11qt_metacastEPKc
libtelegramqml.so.1:_ZN11TelegramQml11removeFilesERK7QString
libtelegramqml.so.1:_ZN11TelegramQml11sendMessageExRK7QStringi
libtelegramqml.so.1:_ZN11TelegramQml11setLogLevelEi
libtelegramqml.so.1:_ZN11TelegramQml11setTempPathERK7QString
libtelegramqml.so.1:_ZN11TelegramQml11unblockUserEx
libtelegramqml.so.1:_ZN11TelegramQml11updates_sltERK5QListI6UpdateERKS0_I4UserERKS0_I4ChatEii
libtelegramqml.so.1:_ZN11TelegramQml11userBlockedEx
libtelegramqml.so.1:_ZN11TelegramQml12appIdChangedEv
libtelegramqml.so.1:_ZN11TelegramQml12authSendCallEv
libtelegramqml.so.1:_ZN11TelegramQml12authSendCodeEv
libtelegramqml.so.1:_ZN11TelegramQml12chatsChangedEv
libtelegramqml.so.1:_ZN11TelegramQml12errorChangedEv
libtelegramqml.so.1:_ZN11TelegramQml12fileLocationEP18FileLocationObject
libtelegramqml.so.1:_ZN11TelegramQml12getInputPeerEx
libtelegramqml.so.1:_ZN11TelegramQml12insertDialogERK6Dialogbb
libtelegramqml.so.1:_ZN11TelegramQml12insertUpdateERK6Update
libtelegramqml.so.1:_ZN11TelegramQml12messagesSentEi
libtelegramqml.so.1:_ZN11TelegramQml12phoneCheckedE7QStringb
libtelegramqml.so.1:_ZN11TelegramQml12setEncrypterEP25DatabaseAbstractEncryptor
libtelegramqml.so.1:_ZN11TelegramQml12setInvisibleEb
libtelegramqml.so.1:_ZN11TelegramQml12usersChangedEv
libtelegramqml.so.1:_ZN11TelegramQml13authLoggedOutEv
libtelegramqml.so.1:_ZN11TelegramQml13cancelSendGetEx
libtelegramqml.so.1:_ZN11TelegramQml13contactsBlockEx
libtelegramqml.so.1:_ZN11TelegramQml13dbChatFoundedERK4Chat
libtelegramqml.so.1:_ZN11TelegramQml13dbUserFoundedERK4User
libtelegramqml.so.1:_ZN11TelegramQml13getSecretChatEx
libtelegramqml.so.1:_ZN11TelegramQml13getStickerSetEP14DocumentObject
libtelegramqml.so.1:_ZN11TelegramQml13getStickerSetERK7QString
libtelegramqml.so.1:_ZN11TelegramQml13insertContactERK7Contactb
libtelegramqml.so.1:_ZN11TelegramQml13insertMessageERK7Messagebbb
libtelegramqml.so.1:_ZN11TelegramQml13insertUpdatesERK11UpdatesType
libtelegramqml.so.1:_ZN11TelegramQml13myUserChangedEv
libtelegramqml.so.1:_ZN11TelegramQml13onlineChangedEv
libtelegramqml.so.1:_ZN11TelegramQml13searchContactERK7QString
libtelegramqml.so.1:_ZN11TelegramQml13setConfigPathERK7QString
libtelegramqml.so.1:_ZN11TelegramQml13setGlobalMuteEb
libtelegramqml.so.1:_ZN11TelegramQml13stringToIndexERK7QString
libtelegramqml.so.1:_ZN11TelegramQml13userUnblockedEx
libtelegramqml.so.1:_ZN11TelegramQml14appHashChangedEv
libtelegramqml.so.1:_ZN11TelegramQml14authCheckPhoneERK7QString
libtelegramqml.so.1:_ZN11TelegramQml14authLogOut_sltExb
libtelegramqml.so.1:_ZN11TelegramQml14authNeeded_sltEv
libtelegramqml.so.1:_ZN11TelegramQml14cancelDownloadEP14DownloadObject
libtelegramqml.so.1:_ZN11TelegramQml14deleteMessagesE5QListIiE
libtelegramqml.so.1:_ZN11TelegramQml14dialogsChangedEb
libtelegramqml.so.1:_ZN11TelegramQml14fatalError_sltEv
libtelegramqml.so.1:_ZN11TelegramQml14insertDocumentERK8Documentb
libtelegramqml.so.1:_ZN11TelegramQml14setPhoneNumberERK7QString
libtelegramqml.so.1:_ZN11TelegramQml14uploadsChangedEv
libtelegramqml.so.1:_ZN11TelegramQml15authInvitesSentEb
libtelegramqml.so.1:_ZN11TelegramQml15authSendInvitesERK11QStringListRK7QString
libtelegramqml.so.1:_ZN11TelegramQml15cleanUpMessagesEv
libtelegramqml.so.1:_ZN11TelegramQml15contactsChangedEv
libtelegramqml.so.1:_ZN11TelegramQml15contactsFoundedERK5QListIiE
libtelegramqml.so.1:_ZN11TelegramQml15contactsUnblockEx
libtelegramqml.so.1:_ZN11TelegramQml15databaseChangedEv
libtelegramqml.so.1:_ZN11TelegramQml15dbDialogFoundedERK6Dialogb
libtelegramqml.so.1:_ZN11TelegramQml15forwardDocumentExP14DocumentObject
libtelegramqml.so.1:_ZN11TelegramQml15forwardMessagesE5QListIiEx
libtelegramqml.so.1:_ZN11TelegramQml15incomingMessageEP13MessageObject
libtelegramqml.so.1:_ZN11TelegramQml15locationOfAudioEP11AudioObject
libtelegramqml.so.1:_ZN11TelegramQml15locationOfPhotoEP11PhotoObject
libtelegramqml.so.1:_ZN11TelegramQml15locationOfVideoEP11VideoObject
libtelegramqml.so.1:_ZN11TelegramQml15messagesChangedEb
libtelegramqml.so.1:_ZN11TelegramQml15objectDestroyedEP7QObject
libtelegramqml.so.1:_ZN11TelegramQml15setDownloadPathERK7QString
libtelegramqml.so.1:_ZN11TelegramQml15setProfilePhotoERK7QString
libtelegramqml.so.1:_ZN11TelegramQml15stickerRecievedEx
libtelegramqml.so.1:_ZN11TelegramQml15stickersChangedEv
libtelegramqml.so.1:_ZN11TelegramQml15telegramChangedEv
libtelegramqml.so.1:_ZN11TelegramQml15tempPathChangedEv
libtelegramqml.so.1:_ZN11TelegramQml15updateShort_sltERK6Updatei
libtelegramqml.so.1:_ZN11TelegramQml15updatesGetStateEv
libtelegramqml.so.1:_ZN11TelegramQml15userDataChangedEv
libtelegramqml.so.1:_ZN11TelegramQml15userStartTypingExx
libtelegramqml.so.1:_ZN11TelegramQml16authLoggedIn_sltEv
libtelegramqml.so.1:_ZN11TelegramQml16authSendCall_sltExb
libtelegramqml.so.1:_ZN11TelegramQml16authSendCode_sltExbi
libtelegramqml.so.1:_ZN11TelegramQml16chatFullsChangedEv
libtelegramqml.so.1:_ZN11TelegramQml16connectedChangedEv
libtelegramqml.so.1:_ZN11TelegramQml16dbContactFoundedERK7Contact
libtelegramqml.so.1:_ZN11TelegramQml16dbMessageFoundedERK7Message
libtelegramqml.so.1:_ZN11TelegramQml16documentFileNameEP14DocumentObject
libtelegramqml.so.1:_ZN11TelegramQml16encrypterChangedEv
libtelegramqml.so.1:_ZN11TelegramQml16fakeDialogObjectExb
libtelegramqml.so.1:_ZN11TelegramQml16fileLocation_oldEP18FileLocationObject
libtelegramqml.so.1:_ZN11TelegramQml16getFileJustCheckEP18FileLocationObject
libtelegramqml.so.1:_ZN11TelegramQml16getInputPeerTypeEx
libtelegramqml.so.1:_ZN11TelegramQml16insertStickerSetERK10StickerSetb
libtelegramqml.so.1:_ZN11TelegramQml16insertToGarbegesEP7QObject
libtelegramqml.so.1:_ZN11TelegramQml16invisibleChangedEv
libtelegramqml.so.1:_ZN11TelegramQml16messagesReceivedEi
libtelegramqml.so.1:_ZN11TelegramQml16setPublicKeyFileERK4QUrl
libtelegramqml.so.1:_ZN11TelegramQml16stickerInstalledERK7QStringb
libtelegramqml.so.1:_ZN11TelegramQml16userBecomeOnlineEx
libtelegramqml.so.1:_ZN11TelegramQml16usersGetFullUserEx
libtelegramqml.so.1:_ZN11TelegramQml17authCallRequestedEb
libtelegramqml.so.1:_ZN11TelegramQml17authCheckPasswordERK7QString
libtelegramqml.so.1:_ZN11TelegramQml17authCodeRequestedEbi
libtelegramqml.so.1:_ZN11TelegramQml17authNeededChangedEv
libtelegramqml.so.1:_ZN11TelegramQml17autoUpdateChangedEv
libtelegramqml.so.1:_ZN11TelegramQml17configPathChangedEv
libtelegramqml.so.1:_ZN11TelegramQml17contactsBlock_sltExb
libtelegramqml.so.1:_ZN11TelegramQml17contactsFound_sltExRK5QListI12ContactFoundERKS0_I4UserE
libtelegramqml.so.1:_ZN11TelegramQml17documentIsStickerEP14DocumentObject
libtelegramqml.so.1:_ZN11TelegramQml17documentStickerIdEP14DocumentObject
libtelegramqml.so.1:_ZN11TelegramQml17fileLocation_old2EP18FileLocationObject
libtelegramqml.so.1:_ZN11TelegramQml17globalMuteChangedEv
libtelegramqml.so.1:_ZN11TelegramQml17helpGetInviteTextERK7QString
libtelegramqml.so.1:_ZN11TelegramQml17insertStickerPackERK11StickerPackb
libtelegramqml.so.1:_ZN11TelegramQml17installStickerSetERK7QString
libtelegramqml.so.1:_ZN11TelegramQml17localFilesPrePathEv
libtelegramqml.so.1:_ZN11TelegramQml17messagesSetTypingExb
libtelegramqml.so.1:_ZN11TelegramQml17uploadGetFile_sltExRK15StorageFileTypeiRK10QByteArrayiii
libtelegramqml.so.1:_ZN11TelegramQml17usersGetUsers_sltExRK5QListI4UserE
libtelegramqml.so.1:_ZN11TelegramQml17wallpapersChangedEv
libtelegramqml.so.1:_ZN11TelegramQml18audioThumbLocationERK7QString
libtelegramqml.so.1:_ZN11TelegramQml18authCheckPhone_sltExb
libtelegramqml.so.1:_ZN11TelegramQml18authPasswordNeededEv
libtelegramqml.so.1:_ZN11TelegramQml18dbMediaKeysFoundedExRK10QByteArrayS2_
libtelegramqml.so.1:_ZN11TelegramQml18deleteLocalHistoryEx
libtelegramqml.so.1:_ZN11TelegramQml18locationOfDocumentEP14DocumentObject
libtelegramqml.so.1:_ZN11TelegramQml18messagesCreateChatERK5QListIiERK7QString
libtelegramqml.so.1:_ZN11TelegramQml18messagesSearch_sltExiRK5QListI7MessageERKS0_I4ChatERKS0_I4UserE
libtelegramqml.so.1:_ZN11TelegramQml18phoneNumberChangedEv
libtelegramqml.so.1:_ZN11TelegramQml18refreshSecretChatsEv
libtelegramqml.so.1:_ZN11TelegramQml18refreshUnreadCountEv
libtelegramqml.so.1:_ZN11TelegramQml18requestReadMessageEi
libtelegramqml.so.1:_ZN11TelegramQml18setDefaultHostDcIdEi
libtelegramqml.so.1:_ZN11TelegramQml18setDefaultHostPortEi
libtelegramqml.so.1:_ZN11TelegramQml18stickerUninstalledERK7QStringb
libtelegramqml.so.1:_ZN11TelegramQml18timerUpdateDialogsEi
libtelegramqml.so.1:_ZN11TelegramQml18unreadCountChangedEv
libtelegramqml.so.1:_ZN11TelegramQml18updatesTooLong_sltEv
libtelegramqml.so.1:_ZN11TelegramQml18uploadSendFile_sltExiii
libtelegramqml.so.1:_ZN11TelegramQml18videoThumbLocationERK7QStringSt8functionIFvvEE
libtelegramqml.so.1:_ZN11TelegramQml19authLoggedInChangedEv
libtelegramqml.so.1:_ZN11TelegramQml19authSendInvites_sltExb
libtelegramqml.so.1:_ZN11TelegramQml19authSignInError_sltExi7QString
libtelegramqml.so.1:_ZN11TelegramQml19authSignUpError_sltExi7QString
libtelegramqml.so.1:_ZN11TelegramQml19cleanUpMessages_prvEv
libtelegramqml.so.1:_ZN11TelegramQml19contactsUnblock_sltExb
libtelegramqml.so.1:_ZN11TelegramQml19downloadPathChangedEv
libtelegramqml.so.1:_ZN11TelegramQml19insertEncryptedChatERK13EncryptedChat
libtelegramqml.so.1:_ZN11TelegramQml19messagesAddChatUserExxi
libtelegramqml.so.1:_ZN11TelegramQml19messagesGetFullChatEi
libtelegramqml.so.1:_ZN11TelegramQml19messagesReadHistoryExi
libtelegramqml.so.1:_ZN11TelegramQml19registerSearchModelEP19TelegramSearchModel
libtelegramqml.so.1:_ZN11TelegramQml19setNewsLetterDialogEP7QObject
libtelegramqml.so.1:_ZN11TelegramQml19startGarbageCheckerEv
libtelegramqml.so.1:_ZN11TelegramQml19timerUpdateContactsEi
libtelegramqml.so.1:_ZN11TelegramQml19uninstallStickerSetERK7QString
libtelegramqml.so.1:_ZN11TelegramQml19updatesCombined_sltERK5QListI6UpdateERKS0_I4UserERKS0_I4ChatEiii
libtelegramqml.so.1:_ZN11TelegramQml19updatesGetState_sltExiiiii
libtelegramqml.so.1:_ZN11TelegramQml20accountCheckUsernameERK7QString
libtelegramqml.so.1:_ZN11TelegramQml20accountUpdateProfileERK7QStringS2_
libtelegramqml.so.1:_ZN11TelegramQml20createAudioThumbnailERK7QStringS2_
libtelegramqml.so.1:_ZN11TelegramQml20deleteCutegramDialogEv
libtelegramqml.so.1:_ZN11TelegramQml20locationOfThumbPhotoEP11PhotoObject
libtelegramqml.so.1:_ZN11TelegramQml20publicKeyFileChangedEv
libtelegramqml.so.1:_ZN11TelegramQml20updatesGetDifferenceEv
libtelegramqml.so.1:_ZN11TelegramQml20uploadCancelFile_sltExb
libtelegramqml.so.1:_ZN11TelegramQml20usersGetFullUser_sltExRK4UserRK12ContactsLinkRK5PhotoRK18PeerNotifySettingsbRK7QStringSE_
libtelegramqml.so.1:_ZN11TelegramQml21accountRegisterDeviceERK7QStringS2_
libtelegramqml.so.1:_ZN11TelegramQml21accountUpdateUsernameERK7QString
libtelegramqml.so.1:_ZN11TelegramQml21authCheckPassword_sltExiRK4User
libtelegramqml.so.1:_ZN11TelegramQml21authSendCodeError_sltEx
libtelegramqml.so.1:_ZN11TelegramQml21encryptedChatsChangedEv
libtelegramqml.so.1:_ZN11TelegramQml21incomingAsemanMessageERK7MessageRK6Dialog
libtelegramqml.so.1:_ZN11TelegramQml21insertCachedPhotoSizeERK9PhotoSize
libtelegramqml.so.1:_ZN11TelegramQml21messagesDeleteHistoryExbb
libtelegramqml.so.1:_ZN11TelegramQml21messagesEditChatPhotoEiRK7QString
libtelegramqml.so.1:_ZN11TelegramQml21messagesEditChatTitleEiRK7QString
libtelegramqml.so.1:_ZN11TelegramQml21messagesSendAudio_sltExRK11UpdatesType
libtelegramqml.so.1:_ZN11TelegramQml21messagesSendMedia_sltExRK11UpdatesType
libtelegramqml.so.1:_ZN11TelegramQml21messagesSendPhoto_sltExRK11UpdatesType
libtelegramqml.so.1:_ZN11TelegramQml21messagesSendVideo_sltExRK11UpdatesType
libtelegramqml.so.1:_ZN11TelegramQml21registerMessagesModelEP21TelegramMessagesModel
libtelegramqml.so.1:_ZN11TelegramQml21sendMessageAsDocumentExRK7QString
libtelegramqml.so.1:_ZN11TelegramQml21setAutoRewakeIntervalEi
libtelegramqml.so.1:_ZN11TelegramQml21setDefaultHostAddressERK7QString
libtelegramqml.so.1:_ZN11TelegramQml21unregisterSearchModelEP19TelegramSearchModel
libtelegramqml.so.1:_ZN11TelegramQml22accountGetPassword_sltExRK15AccountPassword
libtelegramqml.so.1:_ZN11TelegramQml22accountUsernameCheckedEb
libtelegramqml.so.1:_ZN11TelegramQml22authSignInErrorChangedEv
libtelegramqml.so.1:_ZN11TelegramQml22authSignUpErrorChangedEv
libtelegramqml.so.1:_ZN11TelegramQml22defaultHostDcIdChangedEv
libtelegramqml.so.1:_ZN11TelegramQml22defaultHostPortChangedEv
libtelegramqml.so.1:_ZN11TelegramQml22insertEncryptedMessageERK16EncryptedMessage
libtelegramqml.so.1:_ZN11TelegramQml22messagesCreateChat_sltExRK11UpdatesType
libtelegramqml.so.1:_ZN11TelegramQml22messagesDeleteChatUserExx
libtelegramqml.so.1:_ZN11TelegramQml22messagesGetDialogs_sltExiRK5QListI6DialogERKS0_I7MessageERKS0_I4ChatERKS0_I4UserE
libtelegramqml.so.1:_ZN11TelegramQml22messagesGetHistory_sltExiRK5QListI7MessageERKS0_I4ChatERKS0_I4UserE
libtelegramqml.so.1:_ZN11TelegramQml22requestReadMessage_prvEv
libtelegramqml.so.1:_ZN11TelegramQml22setAutoAcceptEncryptedEb
libtelegramqml.so.1:_ZN11TelegramQml22setAutoCleanUpMessagesEb
libtelegramqml.so.1:_ZN11TelegramQml22updateShortMessage_sltEii7QStringiiiiiibb
libtelegramqml.so.1:_ZN11TelegramQml23accountDeviceRegisteredEb
libtelegramqml.so.1:_ZN11TelegramQml23accountUnregisterDeviceERK7QString
libtelegramqml.so.1:_ZN11TelegramQml23authPhoneCheckedChangedEv
libtelegramqml.so.1:_ZN11TelegramQml23authPhoneInvitedChangedEv
libtelegramqml.so.1:_ZN11TelegramQml23authResetAuthorizationsEv
libtelegramqml.so.1:_ZN11TelegramQml23contactsGetContacts_sltExbRK5QListI7ContactERKS0_I4UserE
libtelegramqml.so.1:_ZN11TelegramQml23documentStickerRecievedEP14DocumentObjectP16StickerSetObject
libtelegramqml.so.1:_ZN11TelegramQml23helpGetInviteTextAnswerEx7QString
libtelegramqml.so.1:_ZN11TelegramQml23insertSecretChatMessageERK17SecretChatMessageb
libtelegramqml.so.1:_ZN11TelegramQml23messagesAddChatUser_sltExRK11UpdatesType
libtelegramqml.so.1:_ZN11TelegramQml23messagesGetFullChat_sltExRK8ChatFullRK5QListI4ChatERKS3_I4UserE
libtelegramqml.so.1:_ZN11TelegramQml23messagesGetMessages_sltExiRK5QListI7MessageERKS0_I4ChatERKS0_I4UserE
libtelegramqml.so.1:_ZN11TelegramQml23messagesGetStickers_sltExRK16MessagesStickers
libtelegramqml.so.1:_ZN11TelegramQml23messagesReadHistory_sltExiii
libtelegramqml.so.1:_ZN11TelegramQml23messagesSendMessage_sltExiiRK12MessageMediaiiiRK5QListI12ContactsLinkE
libtelegramqml.so.1:_ZN11TelegramQml23newsLetterDialogChangedEv
libtelegramqml.so.1:_ZN11TelegramQml23unregisterMessagesModelEP21TelegramMessagesModel
libtelegramqml.so.1:_ZN11TelegramQml24accountCheckUsername_sltExb
libtelegramqml.so.1:_ZN11TelegramQml24accountGetWallPapers_sltExRK5QListI9WallPaperE
libtelegramqml.so.1:_ZN11TelegramQml24contactsImportedContactsEii
libtelegramqml.so.1:_ZN11TelegramQml24incomingEncryptedMessageEP22EncryptedMessageObject
libtelegramqml.so.1:_ZN11TelegramQml24installedStickersChangedEv
libtelegramqml.so.1:_ZN11TelegramQml24messagesForwardAudio_sltExRK11UpdatesType
libtelegramqml.so.1:_ZN11TelegramQml24messagesForwardMedia_sltExRK11UpdatesType
libtelegramqml.so.1:_ZN11TelegramQml24messagesForwardPhoto_sltExRK11UpdatesType
libtelegramqml.so.1:_ZN11TelegramQml24messagesForwardVideo_sltExRK11UpdatesType
libtelegramqml.so.1:_ZN11TelegramQml24messagesSendDocument_sltExRK11UpdatesType
libtelegramqml.so.1:_ZN11TelegramQml24updatesGetDifference_sltExRK5QListI7MessageERKS0_I17SecretChatMessageERKS0_I6UpdateERKS0_I4ChatERKS0_I4UserERK12UpdatesStateb
libtelegramqml.so.1:_ZN11TelegramQml25accountDeviceUnregisteredEb
libtelegramqml.so.1:_ZN11TelegramQml25accountRegisterDevice_sltExb
libtelegramqml.so.1:_ZN11TelegramQml25accountUpdateUsername_sltExRK4User
libtelegramqml.so.1:_ZN11TelegramQml25authCheckedPhoneError_sltEx
libtelegramqml.so.1:_ZN11TelegramQml25autoRewakeIntervalChangedEv
libtelegramqml.so.1:_ZN11TelegramQml25defaultHostAddressChangedEv
libtelegramqml.so.1:_ZN11TelegramQml25messagesDeleteHistory_sltExiii
libtelegramqml.so.1:_ZN11TelegramQml25messagesEditChatPhoto_sltExRK11UpdatesType
libtelegramqml.so.1:_ZN11TelegramQml25messagesEditChatTitle_sltExRK11UpdatesType
libtelegramqml.so.1:_ZN11TelegramQml25messagesGetStickerSet_sltExRK18MessagesStickerSet
libtelegramqml.so.1:_ZN11TelegramQml25messagesSendEncrypted_sltExiRK13EncryptedFile
libtelegramqml.so.1:_ZN11TelegramQml25updateEncryptedTopMessageERK7Message
libtelegramqml.so.1:_ZN11TelegramQml26authPasswordProtectedErrorEv
libtelegramqml.so.1:_ZN11TelegramQml26authPhoneRegisteredChangedEv
libtelegramqml.so.1:_ZN11TelegramQml26autoAcceptEncryptedChangedEv
libtelegramqml.so.1:_ZN11TelegramQml26autoCleanUpMessagesChangedEv
libtelegramqml.so.1:_ZN11TelegramQml26contactsImportContacts_sltExRK5QListI15ImportedContactERKS0_IxERKS0_I4UserE
libtelegramqml.so.1:_ZN11TelegramQml26messagesDeleteChatUser_sltExRK11UpdatesType
libtelegramqml.so.1:_ZN11TelegramQml26messagesDeleteMessages_sltExRK24MessagesAffectedMessages
libtelegramqml.so.1:_ZN11TelegramQml26messagesForwardMessage_sltExRK11UpdatesType
libtelegramqml.so.1:_ZN11TelegramQml26messagesGetAllStickers_sltExRK19MessagesAllStickers
libtelegramqml.so.1:_ZN11TelegramQml26updateShortChatMessage_sltEiii7QStringiiiiiibb
libtelegramqml.so.1:_ZN11TelegramQml27accountUnregisterDevice_sltExb
libtelegramqml.so.1:_ZN11TelegramQml27accountUpdateNotifySettingsExi
libtelegramqml.so.1:_ZN11TelegramQml27messagesAcceptEncryptedChatEi
libtelegramqml.so.1:_ZN11TelegramQml27messagesCreateEncryptedChatEx
libtelegramqml.so.1:_ZN11TelegramQml27messagesForwardDocument_sltExRK11UpdatesType
libtelegramqml.so.1:_ZN11TelegramQml27messagesForwardMessages_sltExRK11UpdatesType
libtelegramqml.so.1:_ZN11TelegramQml27refreshTotalUploadedPercentEv
libtelegramqml.so.1:_ZN11TelegramQml27totalUploadedPercentChangedEv
libtelegramqml.so.1:_ZN11TelegramQml27updateSecretChatMessage_sltERK17SecretChatMessagei
libtelegramqml.so.1:_ZN11TelegramQml28messagesDiscardEncryptedChatEib
libtelegramqml.so.1:_ZN11TelegramQml28photosUpdateProfilePhoto_sltExRK16UserProfilePhoto
libtelegramqml.so.1:_ZN11TelegramQml28photosUploadProfilePhoto_sltExRK5PhotoRK5QListI4UserE
libtelegramqml.so.1:_ZN11TelegramQml28uploadingProfilePhotoChangedEv
libtelegramqml.so.1:_ZN11TelegramQml29messagesInstallStickerSet_sltExb
libtelegramqml.so.1:_ZN11TelegramQml29messagesSendEncryptedFile_sltExiRK13EncryptedFile
libtelegramqml.so.1:_ZN11TelegramQml31messagesCreateEncryptedChat_sltEiiix
libtelegramqml.so.1:_ZN11TelegramQml31messagesUninstallStickerSet_sltExb
libtelegramqml.so.1:_ZN11TelegramQml32messagesEncryptedChatCreated_sltEi
libtelegramqml.so.1:_ZN11TelegramQml32messagesReadEncryptedHistory_sltExb
libtelegramqml.so.1:_ZN11TelegramQml34messagesEncryptedChatDiscarded_sltEi
libtelegramqml.so.1:_ZN11TelegramQml34messagesEncryptedChatRequested_sltEiiix
libtelegramqml.so.1:_ZN11TelegramQml4muteEx
libtelegramqml.so.1:_ZN11TelegramQml4wakeEv
libtelegramqml.so.1:_ZN11TelegramQml5sleepEv
libtelegramqml.so.1:_ZN11TelegramQml6searchERK7QString
libtelegramqml.so.1:_ZN11TelegramQml6unmuteEx
libtelegramqml.so.1:_ZN11TelegramQml7getFileEP18FileLocationObjectxi
libtelegramqml.so.1:_ZN11TelegramQml7sendGeoExddi
libtelegramqml.so.1:_ZN11TelegramQml8sendFileExRK7QStringbb
libtelegramqml.so.1:_ZN11TelegramQml8setAppIdEi
libtelegramqml.so.1:_ZN11TelegramQml8try_initEv
libtelegramqml.so.1:_ZN11TelegramQml9blockUserEx
libtelegramqml.so.1:_ZN11TelegramQml9error_sltExi7QStringS0_
libtelegramqml.so.1:_ZN11TelegramQml9getMyUserEv
libtelegramqml.so.1:_ZN11TelegramQml9meChangedEv
libtelegramqml.so.1:_ZN11TelegramQml9reconnectEv
libtelegramqml.so.1:_ZN11TelegramQml9setOnlineEb
libtelegramqml.so.1:_ZN11TelegramQml9userIndexERK7QString
libtelegramqml.so.1:_ZN11TelegramQmlC1EP7QObject
libtelegramqml.so.1:_ZN11TelegramQmlC2EP7QObject
libtelegramqml.so.1:_ZN11TelegramQmlD0Ev
libtelegramqml.so.1:_ZN11TelegramQmlD1Ev
libtelegramqml.so.1:_ZN11TelegramQmlD2Ev
libtelegramqml.so.1:_ZN11VideoObject11dateChangedEv
libtelegramqml.so.1:_ZN11VideoObject11dcIdChangedEv
libtelegramqml.so.1:_ZN11VideoObject11qt_metacallEN11QMetaObject4CallEiPPv
libtelegramqml.so.1:_ZN11VideoObject11qt_metacastEPKc
libtelegramqml.so.1:_ZN11VideoObject11sizeChangedEv
libtelegramqml.so.1:_ZN11VideoObject12thumbChangedEv
libtelegramqml.so.1:_ZN11VideoObject13userIdChangedEv
libtelegramqml.so.1:_ZN11VideoObject15durationChangedEv
libtelegramqml.so.1:_ZN11VideoObject16classTypeChangedEv
libtelegramqml.so.1:_ZN11VideoObject17accessHashChangedEv
libtelegramqml.so.1:_ZN11VideoObject7changedEv
libtelegramqml.so.1:_ZN11VideoObject8hChangedEv
libtelegramqml.so.1:_ZN11VideoObject8wChangedEv
libtelegramqml.so.1:_ZN11VideoObject9idChangedEv
libtelegramqml.so.1:_ZN12DatabaseCore10disconnectEv
libtelegramqml.so.1:_ZN12DatabaseCore10insertChatERK6DbChat
libtelegramqml.so.1:_ZN12DatabaseCore10insertUserERK6DbUser
libtelegramqml.so.1:_ZN12DatabaseCore10timerEventEP11QTimerEvent
libtelegramqml.so.1:_ZN12DatabaseCore10userPhotosEv
libtelegramqml.so.1:_ZN12DatabaseCore11chatFoundedERK6DbChat
libtelegramqml.so.1:_ZN12DatabaseCore11init_bufferEv
libtelegramqml.so.1:_ZN12DatabaseCore11insertAudioERK5Audio
libtelegramqml.so.1:_ZN12DatabaseCore11insertPhotoERK5Photo
libtelegramqml.so.1:_ZN12DatabaseCore11insertVideoERK5Video
libtelegramqml.so.1:_ZN12DatabaseCore11qt_metacallEN11QMetaObject4CallEiPPv
libtelegramqml.so.1:_ZN12DatabaseCore11qt_metacastEPKc
libtelegramqml.so.1:_ZN12DatabaseCore11readDialogsEv
libtelegramqml.so.1:_ZN12DatabaseCore11unblockUserEx
libtelegramqml.so.1:_ZN12DatabaseCore11userFilesOfERK7QString
libtelegramqml.so.1:_ZN12DatabaseCore11userFoundedERK6DbUser
libtelegramqml.so.1:_ZN12DatabaseCore12deleteDialogEx
libtelegramqml.so.1:_ZN12DatabaseCore12insertDialogERK8DbDialogb
libtelegramqml.so.1:_ZN12DatabaseCore12readContactsEv
libtelegramqml.so.1:_ZN12DatabaseCore12readDocumentEx
libtelegramqml.so.1:_ZN12DatabaseCore12readMediaKeyEx
libtelegramqml.so.1:_ZN12DatabaseCore12readMessagesERK6DbPeerii
libtelegramqml.so.1:_ZN12DatabaseCore12setEncrypterEP25DatabaseAbstractEncryptor
libtelegramqml.so.1:_ZN12DatabaseCore12valueChangedERK7QString
libtelegramqml.so.1:_ZN12DatabaseCore13deleteHistoryEx
libtelegramqml.so.1:_ZN12DatabaseCore13deleteMessageEx
libtelegramqml.so.1:_ZN12DatabaseCore13dialogFoundedERK8DbDialogb
libtelegramqml.so.1:_ZN12DatabaseCore13insertContactERK9DbContact
libtelegramqml.so.1:_ZN12DatabaseCore13insertMessageERK9DbMessageb
libtelegramqml.so.1:_ZN12DatabaseCore13readPhotoSizeEx
libtelegramqml.so.1:_ZN12DatabaseCore13stringToUsersERK7QString
libtelegramqml.so.1:_ZN12DatabaseCore13usersToStringERK5QListIiE
libtelegramqml.so.1:_ZN12DatabaseCore14contactFoundedERK9DbContact
libtelegramqml.so.1:_ZN12DatabaseCore14insertDocumentERK8Document
libtelegramqml.so.1:_ZN12DatabaseCore14messageFoundedERK9DbMessage
libtelegramqml.so.1:_ZN12DatabaseCore15insertPhotoSizeExRK5QListI9PhotoSizeE
libtelegramqml.so.1:_ZN12DatabaseCore15mediaKeyFoundedExRK10QByteArrayS2_
libtelegramqml.so.1:_ZN12DatabaseCore15readFullDialogsEv
libtelegramqml.so.1:_ZN12DatabaseCore16update_moveFilesEv
libtelegramqml.so.1:_ZN12DatabaseCore17updateUnreadCountExi
libtelegramqml.so.1:_ZN12DatabaseCore18markMessagesAsReadERK5QListIiE
libtelegramqml.so.1:_ZN12DatabaseCore19userProfilePhotosOfERK7QString
libtelegramqml.so.1:_ZN12DatabaseCore24insertMediaEncryptedKeysExRK10QByteArrayS2_
libtelegramqml.so.1:_ZN12DatabaseCore29markMessagesAsReadFromMaxDateEii
libtelegramqml.so.1:_ZN12DatabaseCore5beginEv
libtelegramqml.so.1:_ZN12DatabaseCore6commitEv
libtelegramqml.so.1:_ZN12DatabaseCore7readGeoEx
libtelegramqml.so.1:_ZN12DatabaseCore8setValueERK7QStringS2_
libtelegramqml.so.1:_ZN12DatabaseCore9blockUserEx
libtelegramqml.so.1:_ZN12DatabaseCore9insertGeoEiRK8GeoPoint
libtelegramqml.so.1:_ZN12DatabaseCore9readAudioEx
libtelegramqml.so.1:_ZN12DatabaseCore9readChatsEv
libtelegramqml.so.1:_ZN12DatabaseCore9readPhotoEx
libtelegramqml.so.1:_ZN12DatabaseCore9readUsersEv
libtelegramqml.so.1:_ZN12DatabaseCore9readVideoEx
libtelegramqml.so.1:_ZN12DatabaseCore9reconnectEv
libtelegramqml.so.1:_ZN12DatabaseCore9update_dbEv
libtelegramqml.so.1:_ZN12DatabaseCore9userFilesEv
libtelegramqml.so.1:_ZN12DatabaseCoreC1ERK7QStringS2_S2_P7QObject
libtelegramqml.so.1:_ZN12DatabaseCoreC2ERK7QStringS2_S2_P7QObject
libtelegramqml.so.1:_ZN12DatabaseCoreD0Ev
libtelegramqml.so.1:_ZN12DatabaseCoreD1Ev
libtelegramqml.so.1:_ZN12DatabaseCoreD2Ev
libtelegramqml.so.1:_ZN12DialogObject11peerChangedEv
libtelegramqml.so.1:_ZN12DialogObject11qt_metacallEN11QMetaObject4CallEiPPv
libtelegramqml.so.1:_ZN12DialogObject11qt_metacastEPKc
libtelegramqml.so.1:_ZN12DialogObject16classTypeChangedEv
libtelegramqml.so.1:_ZN12DialogObject16encryptedChangedEv
libtelegramqml.so.1:_ZN12DialogObject17topMessageChangedEv
libtelegramqml.so.1:_ZN12DialogObject18typingUsersChangedEv
libtelegramqml.so.1:_ZN12DialogObject18unreadCountChangedEv
libtelegramqml.so.1:_ZN12DialogObject21notifySettingsChangedEv
libtelegramqml.so.1:_ZN12DialogObject7changedEv
libtelegramqml.so.1:_ZN12UploadObject11qt_metacallEN11QMetaObject4CallEiPPv
libtelegramqml.so.1:_ZN12UploadObject11qt_metacastEPKc
libtelegramqml.so.1:_ZN12UploadObject13fileIdChangedEv
libtelegramqml.so.1:_ZN12UploadObject13partIdChangedEv
libtelegramqml.so.1:_ZN12UploadObject15locationChangedEv
libtelegramqml.so.1:_ZN12UploadObject15uploadedChangedEv
libtelegramqml.so.1:_ZN12UploadObject16totalSizeChangedEv
libtelegramqml.so.1:_ZN12UploadObject7changedEv
libtelegramqml.so.1:_ZN13ContactObject11qt_metacallEN11QMetaObject4CallEiPPv
libtelegramqml.so.1:_ZN13ContactObject11qt_metacastEPKc
libtelegramqml.so.1:_ZN13ContactObject13mutualChangedEv
libtelegramqml.so.1:_ZN13ContactObject13userIdChangedEv
libtelegramqml.so.1:_ZN13ContactObject16classTypeChangedEv
libtelegramqml.so.1:_ZN13ContactObject7changedEv
libtelegramqml.so.1:_ZN13MessageObject10outChangedEv
libtelegramqml.so.1:_ZN13MessageObject11dateChangedEv
libtelegramqml.so.1:_ZN13MessageObject11qt_metacallEN11QMetaObject4CallEiPPv
libtelegramqml.so.1:_ZN13MessageObject11qt_metacastEPKc
libtelegramqml.so.1:_ZN13MessageObject11sentChangedEv
libtelegramqml.so.1:_ZN13MessageObject11toIdChangedEv
libtelegramqml.so.1:_ZN13MessageObject12mediaChangedEv
libtelegramqml.so.1:_ZN13MessageObject13actionChangedEv
libtelegramqml.so.1:_ZN13MessageObject13fromIdChangedEv
libtelegramqml.so.1:_ZN13MessageObject13unreadChangedEv
libtelegramqml.so.1:_ZN13MessageObject13uploadChangedEv
libtelegramqml.so.1:_ZN13MessageObject14fwdDateChangedEv
libtelegramqml.so.1:_ZN13MessageObject14messageChangedEv
libtelegramqml.so.1:_ZN13MessageObject16classTypeChangedEv
libtelegramqml.so.1:_ZN13MessageObject16encryptedChangedEv
libtelegramqml.so.1:_ZN13MessageObject16fwdFromIdChangedEv
libtelegramqml.so.1:_ZN13MessageObject19replyToMsgIdChangedEv
libtelegramqml.so.1:_ZN13MessageObject7changedEv
libtelegramqml.so.1:_ZN13MessageObject9idChangedEv
libtelegramqml.so.1:_ZN13PhotoSizeList11lastChangedEv
libtelegramqml.so.1:_ZN13PhotoSizeList11qt_metacallEN11QMetaObject4CallEiPPv
libtelegramqml.so.1:_ZN13PhotoSizeList11qt_metacastEPKc
libtelegramqml.so.1:_ZN13PhotoSizeList12countChangedEv
libtelegramqml.so.1:_ZN13PhotoSizeList12firstChangedEv
libtelegramqml.so.1:_ZN13PhotoSizeList2atEi
libtelegramqml.so.1:_ZN13PhotoSizeListC1EP7QObject
libtelegramqml.so.1:_ZN13PhotoSizeListC1ERK5QListI9PhotoSizeEP7QObject
libtelegramqml.so.1:_ZN13PhotoSizeListC2EP7QObject
libtelegramqml.so.1:_ZN13PhotoSizeListC2ERK5QListI9PhotoSizeEP7QObject
libtelegramqml.so.1:_ZN13PhotoSizeListD0Ev
libtelegramqml.so.1:_ZN13PhotoSizeListD1Ev
libtelegramqml.so.1:_ZN13PhotoSizeListD2Ev
libtelegramqml.so.1:_ZN13PhotoSizeListaSERK5QListI9PhotoSizeE
libtelegramqml.so.1:_ZN13ProfilesModel11init_bufferEv
libtelegramqml.so.1:_ZN13ProfilesModel11keysChangedEv
libtelegramqml.so.1:_ZN13ProfilesModel11qt_metacallEN11QMetaObject4CallEiPPv
libtelegramqml.so.1:_ZN13ProfilesModel11qt_metacastEPKc
libtelegramqml.so.1:_ZN13ProfilesModel12countChangedEv
libtelegramqml.so.1:_ZN13ProfilesModel13setConfigPathERK7QString
libtelegramqml.so.1:_ZN13ProfilesModel17configPathChangedEv
libtelegramqml.so.1:_ZN13ProfilesModel3addERK7QString
libtelegramqml.so.1:_ZN13ProfilesModel3getERK7QString
libtelegramqml.so.1:_ZN13ProfilesModel4saveERK7QString
libtelegramqml.so.1:_ZN13ProfilesModel5purgeERK7QString
libtelegramqml.so.1:_ZN13ProfilesModel6removeERK7QString
libtelegramqml.so.1:_ZN13ProfilesModel7refreshEv
libtelegramqml.so.1:_ZN13ProfilesModel7setDataERK11QModelIndexRK8QVarianti
libtelegramqml.so.1:_ZN13ProfilesModel8containtERK7QString
libtelegramqml.so.1:_ZN13ProfilesModelC1EP7QObject
libtelegramqml.so.1:_ZN13ProfilesModelC2EP7QObject
libtelegramqml.so.1:_ZN13ProfilesModelD0Ev
libtelegramqml.so.1:_ZN13ProfilesModelD1Ev
libtelegramqml.so.1:_ZN13ProfilesModelD2Ev
libtelegramqml.so.1:_ZN13StickersModel11listChangedEb
libtelegramqml.so.1:_ZN13StickersModel11qt_metacallEN11QMetaObject4CallEiPPv
libtelegramqml.so.1:_ZN13StickersModel11qt_metacastEPKc
libtelegramqml.so.1:_ZN13StickersModel11setTelegramEP11TelegramQml
libtelegramqml.so.1:_ZN13StickersModel12countChangedEv
libtelegramqml.so.1:_ZN13StickersModel15telegramChangedEv
libtelegramqml.so.1:_ZN13StickersModel18stickerSetsChangedEv
libtelegramqml.so.1:_ZN13StickersModel19initializingChangedEv
libtelegramqml.so.1:_ZN13StickersModel20setCurrentStickerSetERK7QString
libtelegramqml.so.1:_ZN13StickersModel24currentStickerSetChangedEv
libtelegramqml.so.1:_ZN13StickersModel27installedStickerSetsChangedEv
libtelegramqml.so.1:_ZN13StickersModel7getListERK7QString
libtelegramqml.so.1:_ZN13StickersModel7recheckEv
libtelegramqml.so.1:_ZN13StickersModel7refreshEv
libtelegramqml.so.1:_ZN13StickersModelC1EP7QObject
libtelegramqml.so.1:_ZN13StickersModelC2EP7QObject
libtelegramqml.so.1:_ZN13StickersModelD0Ev
libtelegramqml.so.1:_ZN13StickersModelD1Ev
libtelegramqml.so.1:_ZN13StickersModelD2Ev
libtelegramqml.so.1:_ZN14ChatFullObject11qt_metacallEN11QMetaObject4CallEiPPv
libtelegramqml.so.1:_ZN14ChatFullObject11qt_metacastEPKc
libtelegramqml.so.1:_ZN14ChatFullObject16chatPhotoChangedEv
libtelegramqml.so.1:_ZN14ChatFullObject16classTypeChangedEv
libtelegramqml.so.1:_ZN14ChatFullObject19participantsChangedEv
libtelegramqml.so.1:_ZN14ChatFullObject21notifySettingsChangedEv
libtelegramqml.so.1:_ZN14ChatFullObject7changedEv
libtelegramqml.so.1:_ZN14ChatFullObject9idChangedEv
libtelegramqml.so.1:_ZN14DocumentObject11dateChangedEv
libtelegramqml.so.1:_ZN14DocumentObject11dcIdChangedEv
libtelegramqml.so.1:_ZN14DocumentObject11qt_metacallEN11QMetaObject4CallEiPPv
libtelegramqml.so.1:_ZN14DocumentObject11qt_metacastEPKc
libtelegramqml.so.1:_ZN14DocumentObject11sizeChangedEv
libtelegramqml.so.1:_ZN14DocumentObject12thumbChangedEv
libtelegramqml.so.1:_ZN14DocumentObject15mimeTypeChangedEv
libtelegramqml.so.1:_ZN14DocumentObject16classTypeChangedEv
libtelegramqml.so.1:_ZN14DocumentObject17accessHashChangedEv
libtelegramqml.so.1:_ZN14DocumentObject17attributesChangedEv
libtelegramqml.so.1:_ZN14DocumentObject7changedEv
libtelegramqml.so.1:_ZN14DocumentObject9idChangedEv
libtelegramqml.so.1:_ZN14DownloadObject11fileChangedEv
libtelegramqml.so.1:_ZN14DownloadObject11qt_metacallEN11QMetaObject4CallEiPPv
libtelegramqml.so.1:_ZN14DownloadObject11qt_metacastEPKc
libtelegramqml.so.1:_ZN14DownloadObject12mtimeChangedEv
libtelegramqml.so.1:_ZN14DownloadObject12totalChangedEv
libtelegramqml.so.1:_ZN14DownloadObject13fileIdChangedEv
libtelegramqml.so.1:_ZN14DownloadObject13partIdChangedEv
libtelegramqml.so.1:_ZN14DownloadObject15locationChangedEv
libtelegramqml.so.1:_ZN14DownloadObject17downloadedChangedEv
libtelegramqml.so.1:_ZN14DownloadObject7changedEv
libtelegramqml.so.1:_ZN14GeoPointObject10latChangedEv
libtelegramqml.so.1:_ZN14GeoPointObject11qt_metacallEN11QMetaObject4CallEiPPv
libtelegramqml.so.1:_ZN14GeoPointObject11qt_metacastEPKc
libtelegramqml.so.1:_ZN14GeoPointObject16classTypeChangedEv
libtelegramqml.so.1:_ZN14GeoPointObject16longitudeChangedEv
libtelegramqml.so.1:_ZN14GeoPointObject7changedEv
libtelegramqml.so.1:_ZN14TagFilterModel10setKeywordERK7QString
libtelegramqml.so.1:_ZN14TagFilterModel11listChangedEv
libtelegramqml.so.1:_ZN14TagFilterModel11qt_metacallEN11QMetaObject4CallEiPPv
libtelegramqml.so.1:_ZN14TagFilterModel11qt_metacastEPKc
libtelegramqml.so.1:_ZN14TagFilterModel11setUserDataEP8UserData
libtelegramqml.so.1:_ZN14TagFilterModel12countChangedEv
libtelegramqml.so.1:_ZN14TagFilterModel14keywordChangedEv
libtelegramqml.so.1:_ZN14TagFilterModel15userDataChangedEv
libtelegramqml.so.1:_ZN14TagFilterModel3getEi
libtelegramqml.so.1:_ZN14TagFilterModel7refreshEv
libtelegramqml.so.1:_ZN14TagFilterModelC1EP7QObject
libtelegramqml.so.1:_ZN14TagFilterModelC2EP7QObject
libtelegramqml.so.1:_ZN14TagFilterModelD0Ev
libtelegramqml.so.1:_ZN14TagFilterModelD1Ev
libtelegramqml.so.1:_ZN14TagFilterModelD2Ev
libtelegramqml.so.1:_ZN15ChatPhotoObject11qt_metacallEN11QMetaObject4CallEiPPv
libtelegramqml.so.1:_ZN15ChatPhotoObject11qt_metacastEPKc
libtelegramqml.so.1:_ZN15ChatPhotoObject15photoBigChangedEv
libtelegramqml.so.1:_ZN15ChatPhotoObject16classTypeChangedEv
libtelegramqml.so.1:_ZN15ChatPhotoObject17photoSmallChangedEv
libtelegramqml.so.1:_ZN15ChatPhotoObject7changedEv
libtelegramqml.so.1:_ZN15InputPeerObject11qt_metacallEN11QMetaObject4CallEiPPv
libtelegramqml.so.1:_ZN15InputPeerObject11qt_metacastEPKc
libtelegramqml.so.1:_ZN15InputPeerObject13chatIdChangedEv
libtelegramqml.so.1:_ZN15InputPeerObject13userIdChangedEv
libtelegramqml.so.1:_ZN15InputPeerObject16classTypeChangedEv
libtelegramqml.so.1:_ZN15InputPeerObject17accessHashChangedEv
libtelegramqml.so.1:_ZN15InputPeerObject7changedEv
libtelegramqml.so.1:_ZN15PhotoSizeObject11qt_metacallEN11QMetaObject4CallEiPPv
libtelegramqml.so.1:_ZN15PhotoSizeObject11qt_metacastEPKc
libtelegramqml.so.1:_ZN15PhotoSizeObject11sizeChangedEv
libtelegramqml.so.1:_ZN15PhotoSizeObject11typeChangedEv
libtelegramqml.so.1:_ZN15PhotoSizeObject12bytesChangedEv
libtelegramqml.so.1:_ZN15PhotoSizeObject15locationChangedEv
libtelegramqml.so.1:_ZN15PhotoSizeObject16classTypeChangedEv
libtelegramqml.so.1:_ZN15PhotoSizeObject7changedEv
libtelegramqml.so.1:_ZN15PhotoSizeObject8hChangedEv
libtelegramqml.so.1:_ZN15PhotoSizeObject8wChangedEv
libtelegramqml.so.1:_ZN15WallPaperObject11qt_metacallEN11QMetaObject4CallEiPPv
libtelegramqml.so.1:_ZN15WallPaperObject11qt_metacastEPKc
libtelegramqml.so.1:_ZN15WallPaperObject12colorChangedEv
libtelegramqml.so.1:_ZN15WallPaperObject12sizesChangedEv
libtelegramqml.so.1:_ZN15WallPaperObject12titleChangedEv
libtelegramqml.so.1:_ZN15WallPaperObject14bgColorChangedEv
libtelegramqml.so.1:_ZN15WallPaperObject16classTypeChangedEv
libtelegramqml.so.1:_ZN15WallPaperObject7changedEv
libtelegramqml.so.1:_ZN15WallPaperObject9idChangedEv
libtelegramqml.so.1:_ZN16DialogFilesModel11qt_metacallEN11QMetaObject4CallEiPPv
libtelegramqml.so.1:_ZN16DialogFilesModel11qt_metacastEPKc
libtelegramqml.so.1:_ZN16DialogFilesModel11setTelegramEP11TelegramQml
libtelegramqml.so.1:_ZN16DialogFilesModel12countChangedEv
libtelegramqml.so.1:_ZN16DialogFilesModel13dialogChangedEv
libtelegramqml.so.1:_ZN16DialogFilesModel15telegramChangedEv
libtelegramqml.so.1:_ZN16DialogFilesModel7refreshEv
libtelegramqml.so.1:_ZN16DialogFilesModel9setDialogEP12DialogObject
libtelegramqml.so.1:_ZN16DialogFilesModelC1EP7QObject
libtelegramqml.so.1:_ZN16DialogFilesModelC2EP7QObject
libtelegramqml.so.1:_ZN16DialogFilesModelD0Ev
libtelegramqml.so.1:_ZN16DialogFilesModelD1Ev
libtelegramqml.so.1:_ZN16DialogFilesModelD2Ev
libtelegramqml.so.1:_ZN16NewsLetterDialog10cutegramIdEv
libtelegramqml.so.1:_ZN16NewsLetterDialog11qt_metacallEN11QMetaObject4CallEiPPv
libtelegramqml.so.1:_ZN16NewsLetterDialog11qt_metacastEPKc
libtelegramqml.so.1:_ZN16NewsLetterDialog15incomingMessageERK7MessageRK6Dialog
libtelegramqml.so.1:_ZN16NotifyPeerObject11peerChangedEv
libtelegramqml.so.1:_ZN16NotifyPeerObject11qt_metacallEN11QMetaObject4CallEiPPv
libtelegramqml.so.1:_ZN16NotifyPeerObject11qt_metacastEPKc
libtelegramqml.so.1:_ZN16NotifyPeerObject16classTypeChangedEv
libtelegramqml.so.1:_ZN16NotifyPeerObject7changedEv
libtelegramqml.so.1:_ZN16StickerSetObject11qt_metacallEN11QMetaObject4CallEiPPv
libtelegramqml.so.1:_ZN16StickerSetObject11qt_metacastEPKc
libtelegramqml.so.1:_ZN16StickerSetObject12titleChangedEv
libtelegramqml.so.1:_ZN16StickerSetObject16classTypeChangedEv
libtelegramqml.so.1:_ZN16StickerSetObject16shortNameChangedEv
libtelegramqml.so.1:_ZN16StickerSetObject17accessHashChangedEv
libtelegramqml.so.1:_ZN16StickerSetObject7changedEv
libtelegramqml.so.1:_ZN16StickerSetObject9idChangedEv
libtelegramqml.so.1:_ZN16UserStatusObject11qt_metacallEN11QMetaObject4CallEiPPv
libtelegramqml.so.1:_ZN16UserStatusObject11qt_metacastEPKc
libtelegramqml.so.1:_ZN16UserStatusObject14expiresChangedEv
libtelegramqml.so.1:_ZN16UserStatusObject16classTypeChangedEv
libtelegramqml.so.1:_ZN16UserStatusObject16wasOnlineChangedEv
libtelegramqml.so.1:_ZN16UserStatusObject7changedEv
libtelegramqml.so.1:_ZN17BackgroundManager11qt_metacallEN11QMetaObject4CallEiPPv
libtelegramqml.so.1:_ZN17BackgroundManager11qt_metacastEPKc
libtelegramqml.so.1:_ZN17BackgroundManager12setDirectoryERK4QUrl
libtelegramqml.so.1:_ZN17BackgroundManager13dialogChangedEv
libtelegramqml.so.1:_ZN17BackgroundManager13setBackgroundERK7QString
libtelegramqml.so.1:_ZN17BackgroundManager16directoryChangedEv
libtelegramqml.so.1:_ZN17BackgroundManager17backgroundChangedEv
libtelegramqml.so.1:_ZN17BackgroundManager7refreshEv
libtelegramqml.so.1:_ZN17BackgroundManager8dialogIdEv
libtelegramqml.so.1:_ZN17BackgroundManager9setDialogEP12DialogObject
libtelegramqml.so.1:_ZN17BackgroundManagerC1EP7QObject
libtelegramqml.so.1:_ZN17BackgroundManagerC2EP7QObject
libtelegramqml.so.1:_ZN17BackgroundManagerD0Ev
libtelegramqml.so.1:_ZN17BackgroundManagerD1Ev
libtelegramqml.so.1:_ZN17BackgroundManagerD2Ev
libtelegramqml.so.1:_ZN17ContactLinkObject11qt_metacallEN11QMetaObject4CallEiPPv
libtelegramqml.so.1:_ZN17ContactLinkObject11qt_metacastEPKc
libtelegramqml.so.1:_ZN17ContactLinkObject16classTypeChangedEv
libtelegramqml.so.1:_ZN17ContactLinkObject7changedEv
libtelegramqml.so.1:_ZN17ProfilesModelItem11iconChangedEv
libtelegramqml.so.1:_ZN17ProfilesModelItem11muteChangedEv
libtelegramqml.so.1:_ZN17ProfilesModelItem11nameChangedEv
libtelegramqml.so.1:_ZN17ProfilesModelItem11qt_metacallEN11QMetaObject4CallEiPPv
libtelegramqml.so.1:_ZN17ProfilesModelItem11qt_metacastEPKc
libtelegramqml.so.1:_ZN17ProfilesModelItem13numberChangedEv
libtelegramqml.so.1:_ZN17ProfilesModelItem4saveEv
libtelegramqml.so.1:_ZN17ProfilesModelItem7setIconERK7QString
libtelegramqml.so.1:_ZN17ProfilesModelItem7setMuteEb
libtelegramqml.so.1:_ZN17ProfilesModelItem7setNameERK7QString
libtelegramqml.so.1:_ZN17ProfilesModelItem9setNumberERK7QString
libtelegramqml.so.1:_ZN17ProfilesModelItemC1ERK7QStringP13ProfilesModel
libtelegramqml.so.1:_ZN17ProfilesModelItemC2ERK7QStringP13ProfilesModel
libtelegramqml.so.1:_ZN17ProfilesModelItemD0Ev
libtelegramqml.so.1:_ZN17ProfilesModelItemD1Ev
libtelegramqml.so.1:_ZN17ProfilesModelItemD2Ev
libtelegramqml.so.1:_ZN17StickerPackObject11qt_metacallEN11QMetaObject4CallEiPPv
libtelegramqml.so.1:_ZN17StickerPackObject11qt_metacastEPKc
libtelegramqml.so.1:_ZN17StickerPackObject15emoticonChangedEv
libtelegramqml.so.1:_ZN17StickerPackObject16classTypeChangedEv
libtelegramqml.so.1:_ZN17StickerPackObject16documentsChangedEv
libtelegramqml.so.1:_ZN17StickerPackObject7changedEv
libtelegramqml.so.1:_ZN17TelegramQmlPlugin11qt_metacallEN11QMetaObject4CallEiPPv
libtelegramqml.so.1:_ZN17TelegramQmlPlugin11qt_metacastEPKc
libtelegramqml.so.1:_ZN17TelegramQmlPlugin13registerTypesEPKc
libtelegramqml.so.1:_ZN18FileLocationObject11dcIdChangedEv
libtelegramqml.so.1:_ZN18FileLocationObject11qt_metacallEN11QMetaObject4CallEiPPv
libtelegramqml.so.1:_ZN18FileLocationObject11qt_metacastEPKc
libtelegramqml.so.1:_ZN18FileLocationObject13secretChangedEv
libtelegramqml.so.1:_ZN18FileLocationObject14localIdChangedEv
libtelegramqml.so.1:_ZN18FileLocationObject15downloadChangedEv
libtelegramqml.so.1:_ZN18FileLocationObject15fileNameChangedEv
libtelegramqml.so.1:_ZN18FileLocationObject15mimeTypeChangedEv
libtelegramqml.so.1:_ZN18FileLocationObject15volumeIdChangedEv
libtelegramqml.so.1:_ZN18FileLocationObject16classTypeChangedEv
libtelegramqml.so.1:_ZN18FileLocationObject17accessHashChangedEv
libtelegramqml.so.1:_ZN18FileLocationObject7changedEv
libtelegramqml.so.1:_ZN18FileLocationObject9idChangedEv
libtelegramqml.so.1:_ZN18MP3ConverterEngine11qt_metacallEN11QMetaObject4CallEiPPv
libtelegramqml.so.1:_ZN18MP3ConverterEngine11qt_metacastEPKc
libtelegramqml.so.1:_ZN18MP3ConverterEngine12finished_prvEv
libtelegramqml.so.1:_ZN18MP3ConverterEngine13sourceChangedEv
libtelegramqml.so.1:_ZN18MP3ConverterEngine14runningChangedEv
libtelegramqml.so.1:_ZN18MP3ConverterEngine14setDestinationERK7QString
libtelegramqml.so.1:_ZN18MP3ConverterEngine18destinationChangedEv
libtelegramqml.so.1:_ZN18MP3ConverterEngine5errorEv
libtelegramqml.so.1:_ZN18MP3ConverterEngine5startEv
libtelegramqml.so.1:_ZN18MP3ConverterEngine8finishedEv
libtelegramqml.so.1:_ZN18MP3ConverterEngine9setSourceERK7QString
libtelegramqml.so.1:_ZN18MP3ConverterEngineC1EP7QObject
libtelegramqml.so.1:_ZN18MP3ConverterEngineC2EP7QObject
libtelegramqml.so.1:_ZN18MP3ConverterEngineD0Ev
libtelegramqml.so.1:_ZN18MP3ConverterEngineD1Ev
libtelegramqml.so.1:_ZN18MP3ConverterEngineD2Ev
libtelegramqml.so.1:_ZN18MessageMediaObject10geoChangedEv
libtelegramqml.so.1:_ZN18MessageMediaObject11qt_metacallEN11QMetaObject4CallEiPPv
libtelegramqml.so.1:_ZN18MessageMediaObject11qt_metacastEPKc
libtelegramqml.so.1:_ZN18MessageMediaObject12audioChangedEv
libtelegramqml.so.1:_ZN18MessageMediaObject12bytesChangedEv
libtelegramqml.so.1:_ZN18MessageMediaObject12photoChangedEv
libtelegramqml.so.1:_ZN18MessageMediaObject12videoChangedEv
libtelegramqml.so.1:_ZN18MessageMediaObject13userIdChangedEv
libtelegramqml.so.1:_ZN18MessageMediaObject14captionChangedEv
libtelegramqml.so.1:_ZN18MessageMediaObject15documentChangedEv
libtelegramqml.so.1:_ZN18MessageMediaObject15lastNameChangedEv
libtelegramqml.so.1:_ZN18MessageMediaObject16classTypeChangedEv
libtelegramqml.so.1:_ZN18MessageMediaObject16encryptIvChangedEv
libtelegramqml.so.1:_ZN18MessageMediaObject16firstNameChangedEv
libtelegramqml.so.1:_ZN18MessageMediaObject17encryptKeyChangedEv
libtelegramqml.so.1:_ZN18MessageMediaObject18phoneNumberChangedEv
libtelegramqml.so.1:_ZN18MessageMediaObject7changedEv
libtelegramqml.so.1:_ZN19ChatParticipantList11lastChangedEv
libtelegramqml.so.1:_ZN19ChatParticipantList11qt_metacallEN11QMetaObject4CallEiPPv
libtelegramqml.so.1:_ZN19ChatParticipantList11qt_metacastEPKc
libtelegramqml.so.1:_ZN19ChatParticipantList12countChangedEv
libtelegramqml.so.1:_ZN19ChatParticipantList12firstChangedEv
libtelegramqml.so.1:_ZN19ChatParticipantList2atEi
libtelegramqml.so.1:_ZN19ChatParticipantListC1EP7QObject
libtelegramqml.so.1:_ZN19ChatParticipantListC1ERK5QListI15ChatParticipantEP7QObject
libtelegramqml.so.1:_ZN19ChatParticipantListC2EP7QObject
libtelegramqml.so.1:_ZN19ChatParticipantListC2ERK5QListI15ChatParticipantEP7QObject
libtelegramqml.so.1:_ZN19ChatParticipantListD0Ev
libtelegramqml.so.1:_ZN19ChatParticipantListD1Ev
libtelegramqml.so.1:_ZN19ChatParticipantListD2Ev
libtelegramqml.so.1:_ZN19ChatParticipantListaSERK5QListI15ChatParticipantE
libtelegramqml.so.1:_ZN19EncryptedChatObject11dateChangedEv
libtelegramqml.so.1:_ZN19EncryptedChatObject11qt_metacallEN11QMetaObject4CallEiPPv
libtelegramqml.so.1:_ZN19EncryptedChatObject11qt_metacastEPKc
libtelegramqml.so.1:_ZN19EncryptedChatObject12gAOrBChangedEv
libtelegramqml.so.1:_ZN19EncryptedChatObject14adminIdChangedEv
libtelegramqml.so.1:_ZN19EncryptedChatObject16classTypeChangedEv
libtelegramqml.so.1:_ZN19EncryptedChatObject17accessHashChangedEv
libtelegramqml.so.1:_ZN19EncryptedChatObject20participantIdChangedEv
libtelegramqml.so.1:_ZN19EncryptedChatObject21keyFingerprintChangedEv
libtelegramqml.so.1:_ZN19EncryptedChatObject7changedEv
libtelegramqml.so.1:_ZN19EncryptedChatObject9gAChangedEv
libtelegramqml.so.1:_ZN19EncryptedChatObject9idChangedEv
libtelegramqml.so.1:_ZN19EncryptedFileObject11dcIdChangedEv
libtelegramqml.so.1:_ZN19EncryptedFileObject11qt_metacallEN11QMetaObject4CallEiPPv
libtelegramqml.so.1:_ZN19EncryptedFileObject11qt_metacastEPKc
libtelegramqml.so.1:_ZN19EncryptedFileObject11sizeChangedEv
libtelegramqml.so.1:_ZN19EncryptedFileObject16classTypeChangedEv
libtelegramqml.so.1:_ZN19EncryptedFileObject17accessHashChangedEv
libtelegramqml.so.1:_ZN19EncryptedFileObject21keyFingerprintChangedEv
libtelegramqml.so.1:_ZN19EncryptedFileObject7changedEv
libtelegramqml.so.1:_ZN19EncryptedFileObject9idChangedEv
libtelegramqml.so.1:_ZN19MessageActionObject11qt_metacallEN11QMetaObject4CallEiPPv
libtelegramqml.so.1:_ZN19MessageActionObject11qt_metacastEPKc
libtelegramqml.so.1:_ZN19MessageActionObject12photoChangedEv
libtelegramqml.so.1:_ZN19MessageActionObject12titleChangedEv
libtelegramqml.so.1:_ZN19MessageActionObject12usersChangedEv
libtelegramqml.so.1:_ZN19MessageActionObject13userIdChangedEv
libtelegramqml.so.1:_ZN19MessageActionObject14addressChangedEv
libtelegramqml.so.1:_ZN19MessageActionObject16classTypeChangedEv
libtelegramqml.so.1:_ZN19MessageActionObject7changedEv
libtelegramqml.so.1:_ZN19TelegramFileHandler11qt_metacallEN11QMetaObject4CallEiPPv
libtelegramqml.so.1:_ZN19TelegramFileHandler11qt_metacastEPKc
libtelegramqml.so.1:_ZN19TelegramFileHandler11setTelegramEP11TelegramQml
libtelegramqml.so.1:_ZN19TelegramFileHandler13analizeObjectEP7QObjectPiPS1_
libtelegramqml.so.1:_ZN19TelegramFileHandler13connectUploadEP12UploadObject
libtelegramqml.so.1:_ZN19TelegramFileHandler13targetChangedEv
libtelegramqml.so.1:_ZN19TelegramFileHandler14cancelProgressEv
libtelegramqml.so.1:_ZN19TelegramFileHandler15connectLocationEP18FileLocationObject
libtelegramqml.so.1:_ZN19TelegramFileHandler15emitPathChangesEv
libtelegramqml.so.1:_ZN19TelegramFileHandler15fileNameChangedEv
libtelegramqml.so.1:_ZN19TelegramFileHandler15filePathChangedEv
libtelegramqml.so.1:_ZN19TelegramFileHandler15fileSizeChangedEv
libtelegramqml.so.1:_ZN19TelegramFileHandler15telegramChangedEv
libtelegramqml.so.1:_ZN19TelegramFileHandler16detectObjectTypeEP7QObject
libtelegramqml.so.1:_ZN19TelegramFileHandler16detectObjectTypeEv
libtelegramqml.so.1:_ZN19TelegramFileHandler16disconnectUploadEP12UploadObject
libtelegramqml.so.1:_ZN19TelegramFileHandler16dwl_totalChangedEv
libtelegramqml.so.1:_ZN19TelegramFileHandler16imageSizeChangedEv
libtelegramqml.so.1:_ZN19TelegramFileHandler16isStickerChangedEv
libtelegramqml.so.1:_ZN19TelegramFileHandler16thumbPathChangedEv
libtelegramqml.so.1:_ZN19TelegramFileHandler17downloadedChangedEv
libtelegramqml.so.1:_ZN19TelegramFileHandler17dwl_fileIdChangedEv
libtelegramqml.so.1:_ZN19TelegramFileHandler17objectTypeChangedEv
libtelegramqml.so.1:_ZN19TelegramFileHandler17targetTypeChangedEv
libtelegramqml.so.1:_ZN19TelegramFileHandler17upl_fileIdChangedEv
libtelegramqml.so.1:_ZN19TelegramFileHandler18disconnectLocationEP18FileLocationObject
libtelegramqml.so.1:_ZN19TelegramFileHandler19dwl_locationChangedEv
libtelegramqml.so.1:_ZN19TelegramFileHandler19progressTypeChangedEv
libtelegramqml.so.1:_ZN19TelegramFileHandler19setDefaultThumbnailERK4QUrl
libtelegramqml.so.1:_ZN19TelegramFileHandler19upl_locationChangedEv
libtelegramqml.so.1:_ZN19TelegramFileHandler19upl_uploadedChangedEv
libtelegramqml.so.1:_ZN19TelegramFileHandler20upl_totalSizeChangedEv
libtelegramqml.so.1:_ZN19TelegramFileHandler21dwl_downloadedChangedEv
libtelegramqml.so.1:_ZN19TelegramFileHandler22progressPercentChangedEv
libtelegramqml.so.1:_ZN19TelegramFileHandler23defaultThumbnailChangedEv
libtelegramqml.so.1:_ZN19TelegramFileHandler24progressTotalByteChangedEv
libtelegramqml.so.1:_ZN19TelegramFileHandler26progressCurrentByteChangedEv
libtelegramqml.so.1:_ZN19TelegramFileHandler7refreshEv
libtelegramqml.so.1:_ZN19TelegramFileHandler8downloadEv
libtelegramqml.so.1:_ZN19TelegramFileHandler9setTargetEP7QObject
libtelegramqml.so.1:_ZN19TelegramFileHandlerC1EP7QObject
libtelegramqml.so.1:_ZN19TelegramFileHandlerC2EP7QObject
libtelegramqml.so.1:_ZN19TelegramFileHandlerD0Ev
libtelegramqml.so.1:_ZN19TelegramFileHandlerD1Ev
libtelegramqml.so.1:_ZN19TelegramFileHandlerD2Ev
libtelegramqml.so.1:_ZN19TelegramSearchModel10searchDoneERK5QListIxE
libtelegramqml.so.1:_ZN19TelegramSearchModel10setKeywordERK7QString
libtelegramqml.so.1:_ZN19TelegramSearchModel10timerEventEP11QTimerEvent
libtelegramqml.so.1:_ZN19TelegramSearchModel11qt_metacallEN11QMetaObject4CallEiPPv
libtelegramqml.so.1:_ZN19TelegramSearchModel11qt_metacastEPKc
libtelegramqml.so.1:_ZN19TelegramSearchModel11setTelegramEP11TelegramQml
libtelegramqml.so.1:_ZN19TelegramSearchModel12countChangedEv
libtelegramqml.so.1:_ZN19TelegramSearchModel14keywordChangedEv
libtelegramqml.so.1:_ZN19TelegramSearchModel15telegramChangedEv
libtelegramqml.so.1:_ZN19TelegramSearchModel19initializingChangedEv
libtelegramqml.so.1:_ZN19TelegramSearchModel7refreshEv
libtelegramqml.so.1:_ZN19TelegramSearchModelC1EP7QObject
libtelegramqml.so.1:_ZN19TelegramSearchModelC2EP7QObject
libtelegramqml.so.1:_ZN19TelegramSearchModelD0Ev
libtelegramqml.so.1:_ZN19TelegramSearchModelD1Ev
libtelegramqml.so.1:_ZN19TelegramSearchModelD2Ev
libtelegramqml.so.1:_ZN19TelegramThumbnailer11qt_metacallEN11QMetaObject4CallEiPPv
libtelegramqml.so.1:_ZN19TelegramThumbnailer11qt_metacastEPKc
libtelegramqml.so.1:_ZN19TelegramThumbnailer15createThumbnailERK7QStringS2_St8functionIFvvEE
libtelegramqml.so.1:_ZN19TelegramThumbnailer16thumbnailCreatedE7QString
libtelegramqml.so.1:_ZN19TelegramThumbnailer4callEP7QObjectRK7QStringN2Qt14ConnectionTypeE5QListI8QVariantE
libtelegramqml.so.1:_ZN19TelegramThumbnailerC1EP7QObject
libtelegramqml.so.1:_ZN19TelegramThumbnailerC2EP7QObject
libtelegramqml.so.1:_ZN19TelegramThumbnailerD0Ev
libtelegramqml.so.1:_ZN19TelegramThumbnailerD1Ev
libtelegramqml.so.1:_ZN19TelegramThumbnailerD2Ev
libtelegramqml.so.1:_ZN19TgAbstractListModel11qt_metacallEN11QMetaObject4CallEiPPv
libtelegramqml.so.1:_ZN19TgAbstractListModel11qt_metacastEPKc
libtelegramqml.so.1:_ZN19TgAbstractListModelC1EP7QObject
libtelegramqml.so.1:_ZN19TgAbstractListModelC2EP7QObject
libtelegramqml.so.1:_ZN19TgAbstractListModelD0Ev
libtelegramqml.so.1:_ZN19TgAbstractListModelD1Ev
libtelegramqml.so.1:_ZN19TgAbstractListModelD2Ev
libtelegramqml.so.1:_ZN19UserNameFilterModel10setKeywordERK7QString
libtelegramqml.so.1:_ZN19UserNameFilterModel11listChangedEv
libtelegramqml.so.1:_ZN19UserNameFilterModel11qt_metacallEN11QMetaObject4CallEiPPv
libtelegramqml.so.1:_ZN19UserNameFilterModel11qt_metacastEPKc
libtelegramqml.so.1:_ZN19UserNameFilterModel11setTelegramEP11TelegramQml
libtelegramqml.so.1:_ZN19UserNameFilterModel12countChangedEv
libtelegramqml.so.1:_ZN19UserNameFilterModel13dialogChangedEv
libtelegramqml.so.1:_ZN19UserNameFilterModel14keywordChangedEv
libtelegramqml.so.1:_ZN19UserNameFilterModel15telegramChangedEv
libtelegramqml.so.1:_ZN19UserNameFilterModel3getEi
libtelegramqml.so.1:_ZN19UserNameFilterModel7refreshEv
libtelegramqml.so.1:_ZN19UserNameFilterModel9setDialogEP12DialogObject
libtelegramqml.so.1:_ZN19UserNameFilterModelC1EP7QObject
libtelegramqml.so.1:_ZN19UserNameFilterModelC2EP7QObject
libtelegramqml.so.1:_ZN19UserNameFilterModelD0Ev
libtelegramqml.so.1:_ZN19UserNameFilterModelD1Ev
libtelegramqml.so.1:_ZN19UserNameFilterModelD2Ev
libtelegramqml.so.1:_ZN20GeoChatMessageObject11dateChangedEv
libtelegramqml.so.1:_ZN20GeoChatMessageObject11qt_metacallEN11QMetaObject4CallEiPPv
libtelegramqml.so.1:_ZN20GeoChatMessageObject11qt_metacastEPKc
libtelegramqml.so.1:_ZN20GeoChatMessageObject12mediaChangedEv
libtelegramqml.so.1:_ZN20GeoChatMessageObject13actionChangedEv
libtelegramqml.so.1:_ZN20GeoChatMessageObject13chatIdChangedEv
libtelegramqml.so.1:_ZN20GeoChatMessageObject13fromIdChangedEv
libtelegramqml.so.1:_ZN20GeoChatMessageObject14messageChangedEv
libtelegramqml.so.1:_ZN20GeoChatMessageObject16classTypeChangedEv
libtelegramqml.so.1:_ZN20GeoChatMessageObject7changedEv
libtelegramqml.so.1:_ZN20GeoChatMessageObject9idChangedEv
libtelegramqml.so.1:_ZN20TelegramDialogsModel10fixDialogsE5QListIxE
libtelegramqml.so.1:_ZN20TelegramDialogsModel10timerEventEP11QTimerEvent
libtelegramqml.so.1:_ZN20TelegramDialogsModel11qt_metacallEN11QMetaObject4CallEiPPv
libtelegramqml.so.1:_ZN20TelegramDialogsModel11qt_metacastEPKc
libtelegramqml.so.1:_ZN20TelegramDialogsModel11setTelegramEP11TelegramQml
libtelegramqml.so.1:_ZN20TelegramDialogsModel12countChangedEv
libtelegramqml.so.1:_ZN20TelegramDialogsModel14dialogsChangedEb
libtelegramqml.so.1:_ZN20TelegramDialogsModel15refreshDatabaseEv
libtelegramqml.so.1:_ZN20TelegramDialogsModel15setStopUpdatingEb
libtelegramqml.so.1:_ZN20TelegramDialogsModel15telegramChangedEv
libtelegramqml.so.1:_ZN20TelegramDialogsModel15userDataChangedEv
libtelegramqml.so.1:_ZN20TelegramDialogsModel19dialogsChanged_privEv
libtelegramqml.so.1:_ZN20TelegramDialogsModel19initializingChangedEv
libtelegramqml.so.1:_ZN20TelegramDialogsModel19stopUpdatingChangedEv
libtelegramqml.so.1:_ZN20TelegramDialogsModel2atEi
libtelegramqml.so.1:_ZN20TelegramDialogsModel7indexOfEP12DialogObject
libtelegramqml.so.1:_ZN20TelegramDialogsModel7recheckEv
libtelegramqml.so.1:_ZN20TelegramDialogsModelC1EP7QObject
libtelegramqml.so.1:_ZN20TelegramDialogsModelC2EP7QObject
libtelegramqml.so.1:_ZN20TelegramDialogsModelD0Ev
libtelegramqml.so.1:_ZN20TelegramDialogsModelD1Ev
libtelegramqml.so.1:_ZN20TelegramDialogsModelD2Ev
libtelegramqml.so.1:_ZN20TelegramUploadsModel11qt_metacallEN11QMetaObject4CallEiPPv
libtelegramqml.so.1:_ZN20TelegramUploadsModel11qt_metacastEPKc
libtelegramqml.so.1:_ZN20TelegramUploadsModel11setTelegramEP11TelegramQml
libtelegramqml.so.1:_ZN20TelegramUploadsModel12countChangedEv
libtelegramqml.so.1:_ZN20TelegramUploadsModel14uploadsChangedEv
libtelegramqml.so.1:_ZN20TelegramUploadsModel15telegramChangedEv
libtelegramqml.so.1:_ZN20TelegramUploadsModelC1EP7QObject
libtelegramqml.so.1:_ZN20TelegramUploadsModelC2EP7QObject
libtelegramqml.so.1:_ZN20TelegramUploadsModelD0Ev
libtelegramqml.so.1:_ZN20TelegramUploadsModelD1Ev
libtelegramqml.so.1:_ZN20TelegramUploadsModelD2Ev
libtelegramqml.so.1:_ZN21ChatParticipantObject11dateChangedEv
libtelegramqml.so.1:_ZN21ChatParticipantObject11qt_metacallEN11QMetaObject4CallEiPPv
libtelegramqml.so.1:_ZN21ChatParticipantObject11qt_metacastEPKc
libtelegramqml.so.1:_ZN21ChatParticipantObject13userIdChangedEv
libtelegramqml.so.1:_ZN21ChatParticipantObject16classTypeChangedEv
libtelegramqml.so.1:_ZN21ChatParticipantObject16inviterIdChangedEv
libtelegramqml.so.1:_ZN21ChatParticipantObject7changedEv
libtelegramqml.so.1:_ZN21DocumentAttributeList11lastChangedEv
libtelegramqml.so.1:_ZN21DocumentAttributeList11qt_metacallEN11QMetaObject4CallEiPPv
libtelegramqml.so.1:_ZN21DocumentAttributeList11qt_metacastEPKc
libtelegramqml.so.1:_ZN21DocumentAttributeList12countChangedEv
libtelegramqml.so.1:_ZN21DocumentAttributeList12firstChangedEv
libtelegramqml.so.1:_ZN21DocumentAttributeList2atEi
libtelegramqml.so.1:_ZN21DocumentAttributeListC1EP7QObject
libtelegramqml.so.1:_ZN21DocumentAttributeListC1ERK5QListI17DocumentAttributeEP7QObject
libtelegramqml.so.1:_ZN21DocumentAttributeListC2EP7QObject
libtelegramqml.so.1:_ZN21DocumentAttributeListC2ERK5QListI17DocumentAttributeEP7QObject
libtelegramqml.so.1:_ZN21DocumentAttributeListD0Ev
libtelegramqml.so.1:_ZN21DocumentAttributeListD1Ev
libtelegramqml.so.1:_ZN21DocumentAttributeListD2Ev
libtelegramqml.so.1:_ZN21DocumentAttributeListaSERK5QListI17DocumentAttributeE
libtelegramqml.so.1:_ZN21TelegramContactsModel11qt_metacallEN11QMetaObject4CallEiPPv
libtelegramqml.so.1:_ZN21TelegramContactsModel11qt_metacastEPKc
libtelegramqml.so.1:_ZN21TelegramContactsModel11setTelegramEP11TelegramQml
libtelegramqml.so.1:_ZN21TelegramContactsModel12countChangedEv
libtelegramqml.so.1:_ZN21TelegramContactsModel15contactsChangedEv
libtelegramqml.so.1:_ZN21TelegramContactsModel15telegramChangedEv
libtelegramqml.so.1:_ZN21TelegramContactsModel19initializingChangedEv
libtelegramqml.so.1:_ZN21TelegramContactsModel7recheckEv
libtelegramqml.so.1:_ZN21TelegramContactsModel7refreshEv
libtelegramqml.so.1:_ZN21TelegramContactsModelC1EP7QObject
libtelegramqml.so.1:_ZN21TelegramContactsModelC2EP7QObject
libtelegramqml.so.1:_ZN21TelegramContactsModelD0Ev
libtelegramqml.so.1:_ZN21TelegramContactsModelD1Ev
libtelegramqml.so.1:_ZN21TelegramContactsModelD2Ev
libtelegramqml.so.1:_ZN21TelegramMessagesModel10timerEventEP11QTimerEvent
libtelegramqml.so.1:_ZN21TelegramMessagesModel11qt_metacallEN11QMetaObject4CallEiPPv
libtelegramqml.so.1:_ZN21TelegramMessagesModel11qt_metacastEPKc
libtelegramqml.so.1:_ZN21TelegramMessagesModel11sendMessageERK7QStringi
libtelegramqml.so.1:_ZN21TelegramMessagesModel11setTelegramEP11TelegramQml
libtelegramqml.so.1:_ZN21TelegramMessagesModel12countChangedEv
libtelegramqml.so.1:_ZN21TelegramMessagesModel12maxIdChangedEv
libtelegramqml.so.1:_ZN21TelegramMessagesModel12messageAddedEx
libtelegramqml.so.1:_ZN21TelegramMessagesModel13dialogChangedEv
libtelegramqml.so.1:_ZN21TelegramMessagesModel15messagesChangedEb
libtelegramqml.so.1:_ZN21TelegramMessagesModel15telegramChangedEv
libtelegramqml.so.1:_ZN21TelegramMessagesModel17focusToNewRequestEi
libtelegramqml.so.1:_ZN21TelegramMessagesModel17refreshingChangedEv
libtelegramqml.so.1:_ZN21TelegramMessagesModel19clearNewMessageFlagEv
libtelegramqml.so.1:_ZN21TelegramMessagesModel19initializingChangedEv
libtelegramqml.so.1:_ZN21TelegramMessagesModel20hasNewMessageChangedEv
libtelegramqml.so.1:_ZN21TelegramMessagesModel20messagesChanged_privEv
libtelegramqml.so.1:_ZN21TelegramMessagesModel4initEv
libtelegramqml.so.1:_ZN21TelegramMessagesModel7refreshEv
libtelegramqml.so.1:_ZN21TelegramMessagesModel8loadMoreEb
libtelegramqml.so.1:_ZN21TelegramMessagesModel8setMaxIdEi
libtelegramqml.so.1:_ZN21TelegramMessagesModel9setDialogEP12DialogObject
libtelegramqml.so.1:_ZN21TelegramMessagesModel9setReadedEv
libtelegramqml.so.1:_ZN21TelegramMessagesModelC1EP7QObject
libtelegramqml.so.1:_ZN21TelegramMessagesModelC2EP7QObject
libtelegramqml.so.1:_ZN21TelegramMessagesModelD0Ev
libtelegramqml.so.1:_ZN21TelegramMessagesModelD1Ev
libtelegramqml.so.1:_ZN21TelegramMessagesModelD2Ev
libtelegramqml.so.1:_ZN22ChatParticipantsObject11qt_metacallEN11QMetaObject4CallEiPPv
libtelegramqml.so.1:_ZN22ChatParticipantsObject11qt_metacastEPKc
libtelegramqml.so.1:_ZN22ChatParticipantsObject13chatIdChangedEv
libtelegramqml.so.1:_ZN22ChatParticipantsObject14adminIdChangedEv
libtelegramqml.so.1:_ZN22ChatParticipantsObject14versionChangedEv
libtelegramqml.so.1:_ZN22ChatParticipantsObject16classTypeChangedEv
libtelegramqml.so.1:_ZN22ChatParticipantsObject19participantsChangedEv
libtelegramqml.so.1:_ZN22ChatParticipantsObject7changedEv
libtelegramqml.so.1:_ZN22DecryptedMessageObject10ttlChangedEv
libtelegramqml.so.1:_ZN22DecryptedMessageObject11qt_metacallEN11QMetaObject4CallEiPPv
libtelegramqml.so.1:_ZN22DecryptedMessageObject11qt_metacastEPKc
libtelegramqml.so.1:_ZN22DecryptedMessageObject12mediaChangedEv
libtelegramqml.so.1:_ZN22DecryptedMessageObject13actionChangedEv
libtelegramqml.so.1:_ZN22DecryptedMessageObject14messageChangedEv
libtelegramqml.so.1:_ZN22DecryptedMessageObject15randomIdChangedEv
libtelegramqml.so.1:_ZN22DecryptedMessageObject16classTypeChangedEv
libtelegramqml.so.1:_ZN22DecryptedMessageObject18randomBytesChangedEv
libtelegramqml.so.1:_ZN22DecryptedMessageObject7changedEv
libtelegramqml.so.1:_ZN22EncryptedMessageObject11dateChangedEv
libtelegramqml.so.1:_ZN22EncryptedMessageObject11fileChangedEv
libtelegramqml.so.1:_ZN22EncryptedMessageObject11qt_metacallEN11QMetaObject4CallEiPPv
libtelegramqml.so.1:_ZN22EncryptedMessageObject11qt_metacastEPKc
libtelegramqml.so.1:_ZN22EncryptedMessageObject12bytesChangedEv
libtelegramqml.so.1:_ZN22EncryptedMessageObject13chatIdChangedEv
libtelegramqml.so.1:_ZN22EncryptedMessageObject15randomIdChangedEv
libtelegramqml.so.1:_ZN22EncryptedMessageObject16classTypeChangedEv
libtelegramqml.so.1:_ZN22EncryptedMessageObject7changedEv
libtelegramqml.so.1:_ZN22TelegramQmlInitializer15initializeTypesEPKc
libtelegramqml.so.1:_ZN22TelegramQmlInitializer4initEPKc
libtelegramqml.so.1:_ZN22UserProfilePhotoObject11qt_metacallEN11QMetaObject4CallEiPPv
libtelegramqml.so.1:_ZN22UserProfilePhotoObject11qt_metacastEPKc
libtelegramqml.so.1:_ZN22UserProfilePhotoObject14photoIdChangedEv
libtelegramqml.so.1:_ZN22UserProfilePhotoObject15photoBigChangedEv
libtelegramqml.so.1:_ZN22UserProfilePhotoObject16classTypeChangedEv
libtelegramqml.so.1:_ZN22UserProfilePhotoObject17photoSmallChangedEv
libtelegramqml.so.1:_ZN22UserProfilePhotoObject7changedEv
libtelegramqml.so.1:_ZN23DocumentAttributeObject10altChangedEv
libtelegramqml.so.1:_ZN23DocumentAttributeObject11qt_metacallEN11QMetaObject4CallEiPPv
libtelegramqml.so.1:_ZN23DocumentAttributeObject11qt_metacastEPKc
libtelegramqml.so.1:_ZN23DocumentAttributeObject15durationChangedEv
libtelegramqml.so.1:_ZN23DocumentAttributeObject15fileNameChangedEv
libtelegramqml.so.1:_ZN23DocumentAttributeObject16classTypeChangedEv
libtelegramqml.so.1:_ZN23DocumentAttributeObject7changedEv
libtelegramqml.so.1:_ZN23DocumentAttributeObject8hChangedEv
libtelegramqml.so.1:_ZN23DocumentAttributeObject8wChangedEv
libtelegramqml.so.1:_ZN23SendMessageActionObject11qt_metacallEN11QMetaObject4CallEiPPv
libtelegramqml.so.1:_ZN23SendMessageActionObject11qt_metacastEPKc
libtelegramqml.so.1:_ZN23SendMessageActionObject16classTypeChangedEv
libtelegramqml.so.1:_ZN23SendMessageActionObject7changedEv
libtelegramqml.so.1:_ZN23TelegramThumbnailerCore11qt_metacallEN11QMetaObject4CallEiPPv
libtelegramqml.so.1:_ZN23TelegramThumbnailerCore11qt_metacastEPKc
libtelegramqml.so.1:_ZN23TelegramThumbnailerCore15createThumbnailE7QStringS0_
libtelegramqml.so.1:_ZN23TelegramThumbnailerCore16thumbnailCreatedE7QString
libtelegramqml.so.1:_ZN23TelegramThumbnailerCoreC1EP7QObject
libtelegramqml.so.1:_ZN23TelegramThumbnailerCoreC2EP7QObject
libtelegramqml.so.1:_ZN23TelegramThumbnailerCoreD0Ev
libtelegramqml.so.1:_ZN23TelegramThumbnailerCoreD1Ev
libtelegramqml.so.1:_ZN23TelegramThumbnailerCoreD2Ev
libtelegramqml.so.1:_ZN23TelegramWallpapersModel11qt_metacallEN11QMetaObject4CallEiPPv
libtelegramqml.so.1:_ZN23TelegramWallpapersModel11qt_metacastEPKc
libtelegramqml.so.1:_ZN23TelegramWallpapersModel11setTelegramEP11TelegramQml
libtelegramqml.so.1:_ZN23TelegramWallpapersModel12countChangedEv
libtelegramqml.so.1:_ZN23TelegramWallpapersModel15telegramChangedEv
libtelegramqml.so.1:_ZN23TelegramWallpapersModel17wallpapersChangedEv
libtelegramqml.so.1:_ZN23TelegramWallpapersModel19initializingChangedEv
libtelegramqml.so.1:_ZN23TelegramWallpapersModel7recheckEv
libtelegramqml.so.1:_ZN23TelegramWallpapersModelC1EP7QObject
libtelegramqml.so.1:_ZN23TelegramWallpapersModelC2EP7QObject
libtelegramqml.so.1:_ZN23TelegramWallpapersModelD0Ev
libtelegramqml.so.1:_ZN23TelegramWallpapersModelD1Ev
libtelegramqml.so.1:_ZN23TelegramWallpapersModelD2Ev
libtelegramqml.so.1:_ZN24PeerNotifySettingsObject11qt_metacallEN11QMetaObject4CallEiPPv
libtelegramqml.so.1:_ZN24PeerNotifySettingsObject11qt_metacastEPKc
libtelegramqml.so.1:_ZN24PeerNotifySettingsObject12soundChangedEv
libtelegramqml.so.1:_ZN24PeerNotifySettingsObject16classTypeChangedEv
libtelegramqml.so.1:_ZN24PeerNotifySettingsObject16muteUntilChangedEv
libtelegramqml.so.1:_ZN24PeerNotifySettingsObject17eventsMaskChangedEv
libtelegramqml.so.1:_ZN24PeerNotifySettingsObject19showPreviewsChangedEv
libtelegramqml.so.1:_ZN24PeerNotifySettingsObject7changedEv
libtelegramqml.so.1:_ZN25DatabaseAbstractEncryptorC1Ev
libtelegramqml.so.1:_ZN25DatabaseAbstractEncryptorC2Ev
libtelegramqml.so.1:_ZN25DatabaseAbstractEncryptorD0Ev
libtelegramqml.so.1:_ZN25DatabaseAbstractEncryptorD1Ev
libtelegramqml.so.1:_ZN25DatabaseAbstractEncryptorD2Ev
libtelegramqml.so.1:_ZN27DecryptedMessageMediaObject10keyChangedEv
libtelegramqml.so.1:_ZN27DecryptedMessageMediaObject11qt_metacallEN11QMetaObject4CallEiPPv
libtelegramqml.so.1:_ZN27DecryptedMessageMediaObject11qt_metacastEPKc
libtelegramqml.so.1:_ZN27DecryptedMessageMediaObject11sizeChangedEv
libtelegramqml.so.1:_ZN27DecryptedMessageMediaObject12thumbChangedEv
libtelegramqml.so.1:_ZN27DecryptedMessageMediaObject13thumbHChangedEv
libtelegramqml.so.1:_ZN27DecryptedMessageMediaObject13thumbWChangedEv
libtelegramqml.so.1:_ZN27DecryptedMessageMediaObject13userIdChangedEv
libtelegramqml.so.1:_ZN27DecryptedMessageMediaObject15durationChangedEv
libtelegramqml.so.1:_ZN27DecryptedMessageMediaObject15fileNameChangedEv
libtelegramqml.so.1:_ZN27DecryptedMessageMediaObject15lastNameChangedEv
libtelegramqml.so.1:_ZN27DecryptedMessageMediaObject15latitudeChangedEv
libtelegramqml.so.1:_ZN27DecryptedMessageMediaObject15mimeTypeChangedEv
libtelegramqml.so.1:_ZN27DecryptedMessageMediaObject16classTypeChangedEv
libtelegramqml.so.1:_ZN27DecryptedMessageMediaObject16firstNameChangedEv
libtelegramqml.so.1:_ZN27DecryptedMessageMediaObject16longitudeChangedEv
libtelegramqml.so.1:_ZN27DecryptedMessageMediaObject18phoneNumberChangedEv
libtelegramqml.so.1:_ZN27DecryptedMessageMediaObject7changedEv
libtelegramqml.so.1:_ZN27DecryptedMessageMediaObject8hChangedEv
libtelegramqml.so.1:_ZN27DecryptedMessageMediaObject8wChangedEv
libtelegramqml.so.1:_ZN27DecryptedMessageMediaObject9ivChangedEv
libtelegramqml.so.1:_ZN27TelegramContactsFilterModel11qt_metacallEN11QMetaObject4CallEiPPv
libtelegramqml.so.1:_ZN27TelegramContactsFilterModel11qt_metacastEPKc
libtelegramqml.so.1:_ZN27TelegramContactsFilterModel12countChangedEv
libtelegramqml.so.1:_ZN27TelegramContactsFilterModel13setSearchTermERK7QString
libtelegramqml.so.1:_ZN27TelegramContactsFilterModel17searchTermChangedEv
libtelegramqml.so.1:_ZN27TelegramContactsFilterModelC1EP7QObject
libtelegramqml.so.1:_ZN27TelegramContactsFilterModelC2EP7QObject
libtelegramqml.so.1:_ZN27TelegramContactsFilterModelD0Ev
libtelegramqml.so.1:_ZN27TelegramContactsFilterModelD1Ev
libtelegramqml.so.1:_ZN27TelegramContactsFilterModelD2Ev
libtelegramqml.so.1:_ZN28DecryptedMessageActionObject11qt_metacallEN11QMetaObject4CallEiPPv
libtelegramqml.so.1:_ZN28DecryptedMessageActionObject11qt_metacastEPKc
libtelegramqml.so.1:_ZN28DecryptedMessageActionObject12layerChangedEv
libtelegramqml.so.1:_ZN28DecryptedMessageActionObject13actionChangedEv
libtelegramqml.so.1:_ZN28DecryptedMessageActionObject15endSeqNoChangedEv
libtelegramqml.so.1:_ZN28DecryptedMessageActionObject16classTypeChangedEv
libtelegramqml.so.1:_ZN28DecryptedMessageActionObject16randomIdsChangedEv
libtelegramqml.so.1:_ZN28DecryptedMessageActionObject17startSeqNoChangedEv
libtelegramqml.so.1:_ZN28DecryptedMessageActionObject17ttlSecondsChangedEv
libtelegramqml.so.1:_ZN28DecryptedMessageActionObject7changedEv
libtelegramqml.so.1:_ZN29TelegramChatParticipantsModel11qt_metacallEN11QMetaObject4CallEiPPv
libtelegramqml.so.1:_ZN29TelegramChatParticipantsModel11qt_metacastEPKc
libtelegramqml.so.1:_ZN29TelegramChatParticipantsModel11setTelegramEP11TelegramQml
libtelegramqml.so.1:_ZN29TelegramChatParticipantsModel12countChangedEv
libtelegramqml.so.1:_ZN29TelegramChatParticipantsModel13dialogChangedEv
libtelegramqml.so.1:_ZN29TelegramChatParticipantsModel15telegramChangedEv
libtelegramqml.so.1:_ZN29TelegramChatParticipantsModel16chatFullsChangedEv
libtelegramqml.so.1:_ZN29TelegramChatParticipantsModel17refreshingChangedEv
libtelegramqml.so.1:_ZN29TelegramChatParticipantsModel7refreshEv
libtelegramqml.so.1:_ZN29TelegramChatParticipantsModel9setDialogEP12DialogObject
libtelegramqml.so.1:_ZN29TelegramChatParticipantsModelC1EP7QObject
libtelegramqml.so.1:_ZN29TelegramChatParticipantsModelC2EP7QObject
libtelegramqml.so.1:_ZN29TelegramChatParticipantsModelD0Ev
libtelegramqml.so.1:_ZN29TelegramChatParticipantsModelD1Ev
libtelegramqml.so.1:_ZN29TelegramChatParticipantsModelD2Ev
libtelegramqml.so.1:_ZN29TelegramDetailedContactsModel11qt_metacallEN11QMetaObject4CallEiPPv
libtelegramqml.so.1:_ZN29TelegramDetailedContactsModel11qt_metacastEPKc
libtelegramqml.so.1:_ZN29TelegramDetailedContactsModel11setTelegramEP11TelegramQml
libtelegramqml.so.1:_ZN29TelegramDetailedContactsModel12countChangedEv
libtelegramqml.so.1:_ZN29TelegramDetailedContactsModel15contactsChangedEv
libtelegramqml.so.1:_ZN29TelegramDetailedContactsModel15telegramChangedEv
libtelegramqml.so.1:_ZN29TelegramDetailedContactsModel19initializingChangedEv
libtelegramqml.so.1:_ZN29TelegramDetailedContactsModel7recheckEv
libtelegramqml.so.1:_ZN29TelegramDetailedContactsModel7refreshEv
libtelegramqml.so.1:_ZN29TelegramDetailedContactsModelC1EP7QObject
libtelegramqml.so.1:_ZN29TelegramDetailedContactsModelC2EP7QObject
libtelegramqml.so.1:_ZN29TelegramDetailedContactsModelD0Ev
libtelegramqml.so.1:_ZN29TelegramDetailedContactsModelD1Ev
libtelegramqml.so.1:_ZN29TelegramDetailedContactsModelD2Ev
libtelegramqml.so.1:_ZN8Database10insertChatERK4Chat
libtelegramqml.so.1:_ZN8Database10insertUserERK4User
libtelegramqml.so.1:_ZN8Database11chatFoundedERK4Chat
libtelegramqml.so.1:_ZN8Database11qt_metacallEN11QMetaObject4CallEiPPv
libtelegramqml.so.1:_ZN8Database11qt_metacastEPKc
libtelegramqml.so.1:_ZN8Database11unblockUserEx
libtelegramqml.so.1:_ZN8Database11userFoundedERK4User
libtelegramqml.so.1:_ZN8Database12deleteDialogEx
libtelegramqml.so.1:_ZN8Database12insertDialogERK6Dialogb
libtelegramqml.so.1:_ZN8Database12readMessagesERK4Peerii
libtelegramqml.so.1:_ZN8Database12setEncrypterEP25DatabaseAbstractEncryptor
libtelegramqml.so.1:_ZN8Database13deleteHistoryEx
libtelegramqml.so.1:_ZN8Database13deleteMessageEx
libtelegramqml.so.1:_ZN8Database13dialogFoundedERK6Dialogb
libtelegramqml.so.1:_ZN8Database13insertContactERK7Contact
libtelegramqml.so.1:_ZN8Database13insertMessageERK7Messageb
libtelegramqml.so.1:_ZN8Database13setConfigPathERK7QString
libtelegramqml.so.1:_ZN8Database14contactFoundedERK7Contact
libtelegramqml.so.1:_ZN8Database14messageFoundedERK7Message
libtelegramqml.so.1:_ZN8Database14setPhoneNumberERK7QString
libtelegramqml.so.1:_ZN8Database15chatFounded_sltERK6DbChat
libtelegramqml.so.1:_ZN8Database15mediaKeyFoundedExRK10QByteArrayS2_
libtelegramqml.so.1:_ZN8Database15readFullDialogsEv
libtelegramqml.so.1:_ZN8Database15userFounded_sltERK6DbUser
libtelegramqml.so.1:_ZN8Database17configPathChangedEv
libtelegramqml.so.1:_ZN8Database17dialogFounded_sltERK8DbDialogb
libtelegramqml.so.1:_ZN8Database17updateUnreadCountExi
libtelegramqml.so.1:_ZN8Database18contactFounded_sltERK9DbContact
libtelegramqml.so.1:_ZN8Database18markMessagesAsReadERK5QListIiE
libtelegramqml.so.1:_ZN8Database18messageFounded_sltERK9DbMessage
libtelegramqml.so.1:_ZN8Database18phoneNumberChangedEv
libtelegramqml.so.1:_ZN8Database24insertMediaEncryptedKeysExRK10QByteArrayS2_
libtelegramqml.so.1:_ZN8Database29markMessagesAsReadFromMaxDateEii
libtelegramqml.so.1:_ZN8Database7refreshEv
libtelegramqml.so.1:_ZN8Database9blockUserEx
libtelegramqml.so.1:_ZN8DatabaseC1EP7QObject
libtelegramqml.so.1:_ZN8DatabaseC2EP7QObject
libtelegramqml.so.1:_ZN8DatabaseD0Ev
libtelegramqml.so.1:_ZN8DatabaseD1Ev
libtelegramqml.so.1:_ZN8DatabaseD2Ev
libtelegramqml.so.1:_ZN8TqObject11qt_metacallEN11QMetaObject4CallEiPPv
libtelegramqml.so.1:_ZN8TqObject11qt_metacastEPKc
libtelegramqml.so.1:_ZN8TqObject7isValidEPS_
libtelegramqml.so.1:_ZN8TqObjectC1EP7QObject
libtelegramqml.so.1:_ZN8TqObjectC2EP7QObject
libtelegramqml.so.1:_ZN8TqObjectD0Ev
libtelegramqml.so.1:_ZN8TqObjectD1Ev
libtelegramqml.so.1:_ZN8TqObjectD2Ev
libtelegramqml.so.1:_ZN8UserData10disconnectEv
libtelegramqml.so.1:_ZN8UserData10isLoadLinkEi
libtelegramqml.so.1:_ZN8UserData10removeMuteEi
libtelegramqml.so.1:_ZN8UserData11addFavoriteEi
libtelegramqml.so.1:_ZN8UserData11addLoadLinkEi
libtelegramqml.so.1:_ZN8UserData11init_bufferEv
libtelegramqml.so.1:_ZN8UserData11isFavoritedEi
libtelegramqml.so.1:_ZN8UserData11muteChangedEi
libtelegramqml.so.1:_ZN8UserData11qt_metacallEN11QMetaObject4CallEiPPv
libtelegramqml.so.1:_ZN8UserData11qt_metacastEPKc
libtelegramqml.so.1:_ZN8UserData11tagsChangedERK7QString
libtelegramqml.so.1:_ZN8UserData12setPushTokenERK7QString
libtelegramqml.so.1:_ZN8UserData12valueChangedERK7QString
libtelegramqml.so.1:_ZN8UserData13notifyChangedEii
libtelegramqml.so.1:_ZN8UserData13setConfigPathERK7QString
libtelegramqml.so.1:_ZN8UserData14removeFavoriteEi
libtelegramqml.so.1:_ZN8UserData14removeLoadlinkEi
libtelegramqml.so.1:_ZN8UserData14setPhoneNumberERK7QString
libtelegramqml.so.1:_ZN8UserData15favoriteChangedEi
libtelegramqml.so.1:_ZN8UserData15loadLinkChangedEi
libtelegramqml.so.1:_ZN8UserData16addMessageUpdateERK13MessageUpdate
libtelegramqml.so.1:_ZN8UserData17configPathChangedEv
libtelegramqml.so.1:_ZN8UserData17messageUpdateItemEi
libtelegramqml.so.1:_ZN8UserData18phoneNumberChangedEv
libtelegramqml.so.1:_ZN8UserData19removeMessageUpdateEi
libtelegramqml.so.1:_ZN8UserData20messageUpdateChangedEi
libtelegramqml.so.1:_ZN8UserData6addTagERK7QString
libtelegramqml.so.1:_ZN8UserData6notifyEi
libtelegramqml.so.1:_ZN8UserData7addMuteEi
libtelegramqml.so.1:_ZN8UserData7isMutedEi
libtelegramqml.so.1:_ZN8UserData7refreshEv
libtelegramqml.so.1:_ZN8UserData8setValueERK7QStringS2_
libtelegramqml.so.1:_ZN8UserData9loadLinksEv
libtelegramqml.so.1:_ZN8UserData9reconnectEv
libtelegramqml.so.1:_ZN8UserData9setNotifyEii
libtelegramqml.so.1:_ZN8UserData9update_dbEv
libtelegramqml.so.1:_ZN8UserDataC1EP7QObject
libtelegramqml.so.1:_ZN8UserDataC2EP7QObject
libtelegramqml.so.1:_ZN8UserDataD0Ev
libtelegramqml.so.1:_ZN8UserDataD1Ev
libtelegramqml.so.1:_ZN8UserDataD2Ev
libtelegramqml.so.1:_ZNK10ChatObject10metaObjectEv
libtelegramqml.so.1:_ZNK10PeerObject10metaObjectEv
libtelegramqml.so.1:_ZNK10UserObject10metaObjectEv
libtelegramqml.so.1:_ZNK11AudioObject10metaObjectEv
libtelegramqml.so.1:_ZNK11PhotoObject10metaObjectEv
libtelegramqml.so.1:_ZNK11TelegramQml10authNeededEv
libtelegramqml.so.1:_ZNK11TelegramQml10configPathEv
libtelegramqml.so.1:_ZNK11TelegramQml10cutegramIdEv
libtelegramqml.so.1:_ZNK11TelegramQml10globalMuteEv
libtelegramqml.so.1:_ZNK11TelegramQml10metaObjectEv
libtelegramqml.so.1:_ZNK11TelegramQml10nullDialogEv
libtelegramqml.so.1:_ZNK11TelegramQml10nullUploadEv
libtelegramqml.so.1:_ZNK11TelegramQml10stickerSetEx
libtelegramqml.so.1:_ZNK11TelegramQml10wallpapersEv
libtelegramqml.so.1:_ZNK11TelegramQml11currentPathEv
libtelegramqml.so.1:_ZNK11TelegramQml11nullContactEv
libtelegramqml.so.1:_ZNK11TelegramQml11nullMessageEv
libtelegramqml.so.1:_ZNK11TelegramQml11nullStickerEv
libtelegramqml.so.1:_ZNK11TelegramQml11phoneNumberEv
libtelegramqml.so.1:_ZNK11TelegramQml11stickerPackERK7QString
libtelegramqml.so.1:_ZNK11TelegramQml11stickerSetsEv
libtelegramqml.so.1:_ZNK11TelegramQml11unreadCountEv
libtelegramqml.so.1:_ZNK11TelegramQml12authLoggedInEv
libtelegramqml.so.1:_ZNK11TelegramQml12downloadPathEv
libtelegramqml.so.1:_ZNK11TelegramQml12getInputUserEx
libtelegramqml.so.1:_ZNK11TelegramQml12nullChatFullEv
libtelegramqml.so.1:_ZNK11TelegramQml12nullLocationEv
libtelegramqml.so.1:_ZNK11TelegramQml13encryptedChatEx
libtelegramqml.so.1:_ZNK11TelegramQml13messageDialogEx
libtelegramqml.so.1:_ZNK11TelegramQml13nullWallpaperEv
libtelegramqml.so.1:_ZNK11TelegramQml13publicKeyFileEv
libtelegramqml.so.1:_ZNK11TelegramQml13publicKeyPathEv
libtelegramqml.so.1:_ZNK11TelegramQml14nullStickerSetEv
libtelegramqml.so.1:_ZNK11TelegramQml15authSignInErrorEv
libtelegramqml.so.1:_ZNK11TelegramQml15authSignUpErrorEv
libtelegramqml.so.1:_ZNK11TelegramQml15defaultHostDcIdEv
libtelegramqml.so.1:_ZNK11TelegramQml15defaultHostPortEv
libtelegramqml.so.1:_ZNK11TelegramQml15messageDialogIdEx
libtelegramqml.so.1:_ZNK11TelegramQml15nullStickerPackEv
libtelegramqml.so.1:_ZNK11TelegramQml16authPhoneCheckedEv
libtelegramqml.so.1:_ZNK11TelegramQml16authPhoneInvitedEv
libtelegramqml.so.1:_ZNK11TelegramQml16generateRandomIdEv
libtelegramqml.so.1:_ZNK11TelegramQml16newsLetterDialogEv
libtelegramqml.so.1:_ZNK11TelegramQml17nullEncryptedChatEv
libtelegramqml.so.1:_ZNK11TelegramQml18autoRewakeIntervalEv
libtelegramqml.so.1:_ZNK11TelegramQml18defaultHostAddressEv
libtelegramqml.so.1:_ZNK11TelegramQml19authPhoneRegisteredEv
libtelegramqml.so.1:_ZNK11TelegramQml19autoAcceptEncryptedEv
libtelegramqml.so.1:_ZNK11TelegramQml19autoCleanUpMessagesEv
libtelegramqml.so.1:_ZNK11TelegramQml19stickerSetDocumentsERK7QString
libtelegramqml.so.1:_ZNK11TelegramQml19stickerSetDocumentsEx
libtelegramqml.so.1:_ZNK11TelegramQml20installedStickerSetsEv
libtelegramqml.so.1:_ZNK11TelegramQml20nullEncryptedMessageEv
libtelegramqml.so.1:_ZNK11TelegramQml20totalUploadedPercentEv
libtelegramqml.so.1:_ZNK11TelegramQml21stickerSetByShortNameERK7QString
libtelegramqml.so.1:_ZNK11TelegramQml21uploadingProfilePhotoEv
libtelegramqml.so.1:_ZNK11TelegramQml2meEv
libtelegramqml.so.1:_ZNK11TelegramQml4chatEx
libtelegramqml.so.1:_ZNK11TelegramQml4userEx
libtelegramqml.so.1:_ZNK11TelegramQml5appIdEv
libtelegramqml.so.1:_ZNK11TelegramQml5errorEv
libtelegramqml.so.1:_ZNK11TelegramQml6dialogEx
libtelegramqml.so.1:_ZNK11TelegramQml6myUserEv
libtelegramqml.so.1:_ZNK11TelegramQml6onlineEv
libtelegramqml.so.1:_ZNK11TelegramQml6uploadEx
libtelegramqml.so.1:_ZNK11TelegramQml7appHashEv
libtelegramqml.so.1:_ZNK11TelegramQml7contactEx
libtelegramqml.so.1:_ZNK11TelegramQml7dialogsEv
libtelegramqml.so.1:_ZNK11TelegramQml7messageEx
libtelegramqml.so.1:_ZNK11TelegramQml7stickerEx
libtelegramqml.so.1:_ZNK11TelegramQml7uploadsEv
libtelegramqml.so.1:_ZNK11TelegramQml8chatFullEx
libtelegramqml.so.1:_ZNK11TelegramQml8contactsEv
libtelegramqml.so.1:_ZNK11TelegramQml8databaseEv
libtelegramqml.so.1:_ZNK11TelegramQml8homePathEv
libtelegramqml.so.1:_ZNK11TelegramQml8messagesExx
libtelegramqml.so.1:_ZNK11TelegramQml8nullChatEv
libtelegramqml.so.1:_ZNK11TelegramQml8nullUserEv
libtelegramqml.so.1:_ZNK11TelegramQml8stickersEv
libtelegramqml.so.1:_ZNK11TelegramQml8telegramEv
libtelegramqml.so.1:_ZNK11TelegramQml8tempPathEv
libtelegramqml.so.1:_ZNK11TelegramQml8userDataEv
libtelegramqml.so.1:_ZNK11TelegramQml9connectedEv
libtelegramqml.so.1:_ZNK11TelegramQml9encrypterEv
libtelegramqml.so.1:_ZNK11TelegramQml9invisibleEv
libtelegramqml.so.1:_ZNK11TelegramQml9wallpaperEx
libtelegramqml.so.1:_ZNK11VideoObject10metaObjectEv
libtelegramqml.so.1:_ZNK12DatabaseCore10metaObjectEv
libtelegramqml.so.1:_ZNK12DatabaseCore5valueERK7QString
libtelegramqml.so.1:_ZNK12DatabaseCore9encrypterEv
libtelegramqml.so.1:_ZNK12DialogObject10metaObjectEv
libtelegramqml.so.1:_ZNK12UploadObject10metaObjectEv
libtelegramqml.so.1:_ZNK13ContactObject10metaObjectEv
libtelegramqml.so.1:_ZNK13MessageObject10metaObjectEv
libtelegramqml.so.1:_ZNK13PhotoSizeList10metaObjectEv
libtelegramqml.so.1:_ZNK13PhotoSizeList4lastEv
libtelegramqml.so.1:_ZNK13PhotoSizeList5countEv
libtelegramqml.so.1:_ZNK13PhotoSizeList5firstEv
libtelegramqml.so.1:_ZNK13ProfilesModel10configPathEv
libtelegramqml.so.1:_ZNK13ProfilesModel10metaObjectEv
libtelegramqml.so.1:_ZNK13ProfilesModel2idERK11QModelIndex
libtelegramqml.so.1:_ZNK13ProfilesModel4dataERK11QModelIndexi
libtelegramqml.so.1:_ZNK13ProfilesModel4keysEv
libtelegramqml.so.1:_ZNK13ProfilesModel5countEv
libtelegramqml.so.1:_ZNK13ProfilesModel5flagsERK11QModelIndex
libtelegramqml.so.1:_ZNK13ProfilesModel8rowCountERK11QModelIndex
libtelegramqml.so.1:_ZNK13ProfilesModel9roleNamesEv
libtelegramqml.so.1:_ZNK13StickersModel10metaObjectEv
libtelegramqml.so.1:_ZNK13StickersModel11stickerSetsEv
libtelegramqml.so.1:_ZNK13StickersModel12initializingEv
libtelegramqml.so.1:_ZNK13StickersModel14stickerSetItemERK7QString
libtelegramqml.so.1:_ZNK13StickersModel17currentStickerSetEv
libtelegramqml.so.1:_ZNK13StickersModel17stickerOfDocumentEP14DocumentObject
libtelegramqml.so.1:_ZNK13StickersModel20installedStickerSetsEv
libtelegramqml.so.1:_ZNK13StickersModel27stickerSetThumbnailDocumentERK7QString
libtelegramqml.so.1:_ZNK13StickersModel2idERK11QModelIndex
libtelegramqml.so.1:_ZNK13StickersModel4dataERK11QModelIndexi
libtelegramqml.so.1:_ZNK13StickersModel5countEv
libtelegramqml.so.1:_ZNK13StickersModel8rowCountERK11QModelIndex
libtelegramqml.so.1:_ZNK13StickersModel8telegramEv
libtelegramqml.so.1:_ZNK13StickersModel9roleNamesEv
libtelegramqml.so.1:_ZNK14ChatFullObject10metaObjectEv
libtelegramqml.so.1:_ZNK14DocumentObject10metaObjectEv
libtelegramqml.so.1:_ZNK14DownloadObject10metaObjectEv
libtelegramqml.so.1:_ZNK14GeoPointObject10metaObjectEv
libtelegramqml.so.1:_ZNK14TagFilterModel10metaObjectEv
libtelegramqml.so.1:_ZNK14TagFilterModel2idERK11QModelIndex
libtelegramqml.so.1:_ZNK14TagFilterModel4dataERK11QModelIndexi
libtelegramqml.so.1:_ZNK14TagFilterModel5countEv
libtelegramqml.so.1:_ZNK14TagFilterModel7keywordEv
libtelegramqml.so.1:_ZNK14TagFilterModel8rowCountERK11QModelIndex
libtelegramqml.so.1:_ZNK14TagFilterModel8userDataEv
libtelegramqml.so.1:_ZNK14TagFilterModel9roleNamesEv
libtelegramqml.so.1:_ZNK15ChatPhotoObject10metaObjectEv
libtelegramqml.so.1:_ZNK15InputPeerObject10metaObjectEv
libtelegramqml.so.1:_ZNK15PhotoSizeObject10metaObjectEv
libtelegramqml.so.1:_ZNK15WallPaperObject10metaObjectEv
libtelegramqml.so.1:_ZNK16DialogFilesModel10metaObjectEv
libtelegramqml.so.1:_ZNK16DialogFilesModel2idERK11QModelIndex
libtelegramqml.so.1:_ZNK16DialogFilesModel4dataERK11QModelIndexi
libtelegramqml.so.1:_ZNK16DialogFilesModel5countEv
libtelegramqml.so.1:_ZNK16DialogFilesModel6dialogEv
libtelegramqml.so.1:_ZNK16DialogFilesModel7dirPathEv
libtelegramqml.so.1:_ZNK16DialogFilesModel8rowCountERK11QModelIndex
libtelegramqml.so.1:_ZNK16DialogFilesModel8telegramEv
libtelegramqml.so.1:_ZNK16DialogFilesModel9roleNamesEv
libtelegramqml.so.1:_ZNK16NewsLetterDialog10metaObjectEv
libtelegramqml.so.1:_ZNK16NotifyPeerObject10metaObjectEv
libtelegramqml.so.1:_ZNK16StickerSetObject10metaObjectEv
libtelegramqml.so.1:_ZNK16UserStatusObject10metaObjectEv
libtelegramqml.so.1:_ZNK17BackgroundManager10backgroundEv
libtelegramqml.so.1:_ZNK17BackgroundManager10metaObjectEv
libtelegramqml.so.1:_ZNK17BackgroundManager6dialogEv
libtelegramqml.so.1:_ZNK17BackgroundManager9directoryEv
libtelegramqml.so.1:_ZNK17ContactLinkObject10metaObjectEv
libtelegramqml.so.1:_ZNK17ProfilesModelItem10metaObjectEv
libtelegramqml.so.1:_ZNK17ProfilesModelItem4iconEv
libtelegramqml.so.1:_ZNK17ProfilesModelItem4muteEv
libtelegramqml.so.1:_ZNK17ProfilesModelItem4nameEv
libtelegramqml.so.1:_ZNK17ProfilesModelItem6numberEv
libtelegramqml.so.1:_ZNK17StickerPackObject10metaObjectEv
libtelegramqml.so.1:_ZNK17TelegramQmlPlugin10metaObjectEv
libtelegramqml.so.1:_ZNK18FileLocationObject10metaObjectEv
libtelegramqml.so.1:_ZNK18MP3ConverterEngine10metaObjectEv
libtelegramqml.so.1:_ZNK18MP3ConverterEngine11destinationEv
libtelegramqml.so.1:_ZNK18MP3ConverterEngine6sourceEv
libtelegramqml.so.1:_ZNK18MP3ConverterEngine7runningEv
libtelegramqml.so.1:_ZNK18MessageMediaObject10metaObjectEv
libtelegramqml.so.1:_ZNK19ChatParticipantList10metaObjectEv
libtelegramqml.so.1:_ZNK19ChatParticipantList4lastEv
libtelegramqml.so.1:_ZNK19ChatParticipantList5countEv
libtelegramqml.so.1:_ZNK19ChatParticipantList5firstEv
libtelegramqml.so.1:_ZNK19ChatParticipantList7userIdsEv
libtelegramqml.so.1:_ZNK19EncryptedChatObject10metaObjectEv
libtelegramqml.so.1:_ZNK19EncryptedFileObject10metaObjectEv
libtelegramqml.so.1:_ZNK19MessageActionObject10metaObjectEv
libtelegramqml.so.1:_ZNK19TelegramFileHandler10downloadedEv
libtelegramqml.so.1:_ZNK19TelegramFileHandler10metaObjectEv
libtelegramqml.so.1:_ZNK19TelegramFileHandler10objectTypeEv
libtelegramqml.so.1:_ZNK19TelegramFileHandler10targetTypeEv
libtelegramqml.so.1:_ZNK19TelegramFileHandler12progressTypeEv
libtelegramqml.so.1:_ZNK19TelegramFileHandler15progressPercentEv
libtelegramqml.so.1:_ZNK19TelegramFileHandler16defaultThumbnailEv
libtelegramqml.so.1:_ZNK19TelegramFileHandler17progressTotalByteEv
libtelegramqml.so.1:_ZNK19TelegramFileHandler19progressCurrentByteEv
libtelegramqml.so.1:_ZNK19TelegramFileHandler6targetEv
libtelegramqml.so.1:_ZNK19TelegramFileHandler8fileNameEv
libtelegramqml.so.1:_ZNK19TelegramFileHandler8filePathEv
libtelegramqml.so.1:_ZNK19TelegramFileHandler8fileSizeEv
libtelegramqml.so.1:_ZNK19TelegramFileHandler8telegramEv
libtelegramqml.so.1:_ZNK19TelegramFileHandler9imageSizeEv
libtelegramqml.so.1:_ZNK19TelegramFileHandler9isStickerEv
libtelegramqml.so.1:_ZNK19TelegramFileHandler9thumbPathEv
libtelegramqml.so.1:_ZNK19TelegramSearchModel10metaObjectEv
libtelegramqml.so.1:_ZNK19TelegramSearchModel12initializingEv
libtelegramqml.so.1:_ZNK19TelegramSearchModel2idERK11QModelIndex
libtelegramqml.so.1:_ZNK19TelegramSearchModel4dataERK11QModelIndexi
libtelegramqml.so.1:_ZNK19TelegramSearchModel5countEv
libtelegramqml.so.1:_ZNK19TelegramSearchModel7keywordEv
libtelegramqml.so.1:_ZNK19TelegramSearchModel8messagesEv
libtelegramqml.so.1:_ZNK19TelegramSearchModel8rowCountERK11QModelIndex
libtelegramqml.so.1:_ZNK19TelegramSearchModel8telegramEv
libtelegramqml.so.1:_ZNK19TelegramSearchModel9roleNamesEv
libtelegramqml.so.1:_ZNK19TelegramThumbnailer10metaObjectEv
libtelegramqml.so.1:_ZNK19TelegramThumbnailer12getThumbPathERK7QStringS2_
libtelegramqml.so.1:_ZNK19TelegramThumbnailer12hasThumbnailERK7QString
libtelegramqml.so.1:_ZNK19TelegramThumbnailer12hasThumbnailERK7QStringS2_
libtelegramqml.so.1:_ZNK19TelegramThumbnailer16getThumbFilenameERK7QString
libtelegramqml.so.1:_ZNK19TgAbstractListModel10metaObjectEv
libtelegramqml.so.1:_ZNK19TgAbstractListModel3getEi
libtelegramqml.so.1:_ZNK19TgAbstractListModel3getEii
libtelegramqml.so.1:_ZNK19TgAbstractListModel5rolesEv
libtelegramqml.so.1:_ZNK19UserNameFilterModel10metaObjectEv
libtelegramqml.so.1:_ZNK19UserNameFilterModel2idERK11QModelIndex
libtelegramqml.so.1:_ZNK19UserNameFilterModel4dataERK11QModelIndexi
libtelegramqml.so.1:_ZNK19UserNameFilterModel5countEv
libtelegramqml.so.1:_ZNK19UserNameFilterModel6dialogEv
libtelegramqml.so.1:_ZNK19UserNameFilterModel7keywordEv
libtelegramqml.so.1:_ZNK19UserNameFilterModel8rowCountERK11QModelIndex
libtelegramqml.so.1:_ZNK19UserNameFilterModel8telegramEv
libtelegramqml.so.1:_ZNK19UserNameFilterModel9roleNamesEv
libtelegramqml.so.1:_ZNK20GeoChatMessageObject10metaObjectEv
libtelegramqml.so.1:_ZNK20TelegramDialogsModel10metaObjectEv
libtelegramqml.so.1:_ZNK20TelegramDialogsModel12initializingEv
libtelegramqml.so.1:_ZNK20TelegramDialogsModel12stopUpdatingEv
libtelegramqml.so.1:_ZNK20TelegramDialogsModel2idERK11QModelIndex
libtelegramqml.so.1:_ZNK20TelegramDialogsModel4dataERK11QModelIndexi
libtelegramqml.so.1:_ZNK20TelegramDialogsModel5countEv
libtelegramqml.so.1:_ZNK20TelegramDialogsModel8rowCountERK11QModelIndex
libtelegramqml.so.1:_ZNK20TelegramDialogsModel8telegramEv
libtelegramqml.so.1:_ZNK20TelegramDialogsModel9roleNamesEv
libtelegramqml.so.1:_ZNK20TelegramUploadsModel10metaObjectEv
libtelegramqml.so.1:_ZNK20TelegramUploadsModel2idERK11QModelIndex
libtelegramqml.so.1:_ZNK20TelegramUploadsModel4dataERK11QModelIndexi
libtelegramqml.so.1:_ZNK20TelegramUploadsModel5countEv
libtelegramqml.so.1:_ZNK20TelegramUploadsModel8rowCountERK11QModelIndex
libtelegramqml.so.1:_ZNK20TelegramUploadsModel8telegramEv
libtelegramqml.so.1:_ZNK20TelegramUploadsModel9roleNamesEv
libtelegramqml.so.1:_ZNK21ChatParticipantObject10metaObjectEv
libtelegramqml.so.1:_ZNK21DocumentAttributeList10metaObjectEv
libtelegramqml.so.1:_ZNK21DocumentAttributeList4lastEv
libtelegramqml.so.1:_ZNK21DocumentAttributeList5countEv
libtelegramqml.so.1:_ZNK21DocumentAttributeList5firstEv
libtelegramqml.so.1:_ZNK21TelegramContactsModel10metaObjectEv
libtelegramqml.so.1:_ZNK21TelegramContactsModel12initializingEv
libtelegramqml.so.1:_ZNK21TelegramContactsModel2idERK11QModelIndex
libtelegramqml.so.1:_ZNK21TelegramContactsModel4dataERK11QModelIndexi
libtelegramqml.so.1:_ZNK21TelegramContactsModel5countEv
libtelegramqml.so.1:_ZNK21TelegramContactsModel8rowCountERK11QModelIndex
libtelegramqml.so.1:_ZNK21TelegramContactsModel8telegramEv
libtelegramqml.so.1:_ZNK21TelegramContactsModel9roleNamesEv
libtelegramqml.so.1:_ZNK21TelegramMessagesModel10metaObjectEv
libtelegramqml.so.1:_ZNK21TelegramMessagesModel10refreshingEv
libtelegramqml.so.1:_ZNK21TelegramMessagesModel12initializingEv
libtelegramqml.so.1:_ZNK21TelegramMessagesModel13hasNewMessageEv
libtelegramqml.so.1:_ZNK21TelegramMessagesModel2idERK11QModelIndex
libtelegramqml.so.1:_ZNK21TelegramMessagesModel4dataERK11QModelIndexi
libtelegramqml.so.1:_ZNK21TelegramMessagesModel4peerEv
libtelegramqml.so.1:_ZNK21TelegramMessagesModel5countEv
libtelegramqml.so.1:_ZNK21TelegramMessagesModel5maxIdEv
libtelegramqml.so.1:_ZNK21TelegramMessagesModel6dialogEv
libtelegramqml.so.1:_ZNK21TelegramMessagesModel6peerIdEv
libtelegramqml.so.1:_ZNK21TelegramMessagesModel7indexOfEx
libtelegramqml.so.1:_ZNK21TelegramMessagesModel8rowCountERK11QModelIndex
libtelegramqml.so.1:_ZNK21TelegramMessagesModel8telegramEv
libtelegramqml.so.1:_ZNK21TelegramMessagesModel9roleNamesEv
libtelegramqml.so.1:_ZNK22ChatParticipantsObject10metaObjectEv
libtelegramqml.so.1:_ZNK22DecryptedMessageObject10metaObjectEv
libtelegramqml.so.1:_ZNK22EncryptedMessageObject10metaObjectEv
libtelegramqml.so.1:_ZNK22UserProfilePhotoObject10metaObjectEv
libtelegramqml.so.1:_ZNK23DocumentAttributeObject10metaObjectEv
libtelegramqml.so.1:_ZNK23SendMessageActionObject10metaObjectEv
libtelegramqml.so.1:_ZNK23TelegramThumbnailerCore10metaObjectEv
libtelegramqml.so.1:_ZNK23TelegramWallpapersModel10metaObjectEv
libtelegramqml.so.1:_ZNK23TelegramWallpapersModel12initializingEv
libtelegramqml.so.1:_ZNK23TelegramWallpapersModel2idERK11QModelIndex
libtelegramqml.so.1:_ZNK23TelegramWallpapersModel4dataERK11QModelIndexi
libtelegramqml.so.1:_ZNK23TelegramWallpapersModel5countEv
libtelegramqml.so.1:_ZNK23TelegramWallpapersModel8rowCountERK11QModelIndex
libtelegramqml.so.1:_ZNK23TelegramWallpapersModel8telegramEv
libtelegramqml.so.1:_ZNK23TelegramWallpapersModel9roleNamesEv
libtelegramqml.so.1:_ZNK24PeerNotifySettingsObject10metaObjectEv
libtelegramqml.so.1:_ZNK27DecryptedMessageMediaObject10metaObjectEv
libtelegramqml.so.1:_ZNK27TelegramContactsFilterModel10metaObjectEv
libtelegramqml.so.1:_ZNK27TelegramContactsFilterModel10searchTermEv
libtelegramqml.so.1:_ZNK27TelegramContactsFilterModel16filterAcceptsRowEiRK11QModelIndex
libtelegramqml.so.1:_ZNK27TelegramContactsFilterModel3getEi
libtelegramqml.so.1:_ZNK28DecryptedMessageActionObject10metaObjectEv
libtelegramqml.so.1:_ZNK29TelegramChatParticipantsModel10metaObjectEv
libtelegramqml.so.1:_ZNK29TelegramChatParticipantsModel10refreshingEv
libtelegramqml.so.1:_ZNK29TelegramChatParticipantsModel2idERK11QModelIndex
libtelegramqml.so.1:_ZNK29TelegramChatParticipantsModel4dataERK11QModelIndexi
libtelegramqml.so.1:_ZNK29TelegramChatParticipantsModel5countEv
libtelegramqml.so.1:_ZNK29TelegramChatParticipantsModel6dialogEv
libtelegramqml.so.1:_ZNK29TelegramChatParticipantsModel8rowCountERK11QModelIndex
libtelegramqml.so.1:_ZNK29TelegramChatParticipantsModel8telegramEv
libtelegramqml.so.1:_ZNK29TelegramChatParticipantsModel9roleNamesEv
libtelegramqml.so.1:_ZNK29TelegramDetailedContactsModel10metaObjectEv
libtelegramqml.so.1:_ZNK29TelegramDetailedContactsModel12initializingEv
libtelegramqml.so.1:_ZNK29TelegramDetailedContactsModel2idERK11QModelIndex
libtelegramqml.so.1:_ZNK29TelegramDetailedContactsModel4dataERK11QModelIndexi
libtelegramqml.so.1:_ZNK29TelegramDetailedContactsModel5countEv
libtelegramqml.so.1:_ZNK29TelegramDetailedContactsModel8rowCountERK11QModelIndex
libtelegramqml.so.1:_ZNK29TelegramDetailedContactsModel8telegramEv
libtelegramqml.so.1:_ZNK29TelegramDetailedContactsModel9roleNamesEv
libtelegramqml.so.1:_ZNK8Database10configPathEv
libtelegramqml.so.1:_ZNK8Database10metaObjectEv
libtelegramqml.so.1:_ZNK8Database11phoneNumberEv
libtelegramqml.so.1:_ZNK8Database9encrypterEv
libtelegramqml.so.1:_ZNK8TqObject10metaObjectEv
libtelegramqml.so.1:_ZNK8UserData10configPathEv
libtelegramqml.so.1:_ZNK8UserData10metaObjectEv
libtelegramqml.so.1:_ZNK8UserData11phoneNumberEv
libtelegramqml.so.1:_ZNK8UserData14messageUpdatesEv
libtelegramqml.so.1:_ZNK8UserData4tagsEv
libtelegramqml.so.1:_ZNK8UserData5mutesEv
libtelegramqml.so.1:_ZNK8UserData5valueERK7QString
libtelegramqml.so.1:_ZNK8UserData9favoritesEv
libtelegramqml.so.1:_ZNK8UserData9pushTokenEv
libtelegramqml.so.1:_ZThn16_N17TelegramQmlPlugin13registerTypesEPKc
libtelegramqml.so.1:qt_plugin_instance
libtelegramqml.so.1:qt_plugin_query_metadata
